((ivocab
Vocab
p0
(dp1
S'word_dict'
p2
ccollections
defaultdict
p3
(c__builtin__
int
p4
tp5
Rp6
S'limited'
p7
I3629
sS'consolidated'
p8
I1158
sS'magnetic'
p9
I1159
sS'Hunt'
p10
I1718
sS'self-incrimination'
p11
I1162
sS'four'
p12
I3
sS'facilities'
p13
I3631
sS'protest'
p14
I2379
sS'Does'
p15
I4
sS'controversial'
p16
I1164
sS'aides'
p17
I2380
sS'consists'
p18
I2381
sS'Communist'
p19
I3632
sS'oldest'
p20
I1165
sS'Until'
p21
I5
sS'consider'
p22
I576
sS'relationships'
p23
I1166
sS'whose'
p24
I2382
sS'votes'
p25
I1167
sS'public-relations'
p26
I3634
sS'violate'
p27
I3635
sS'eligible'
p28
I7
sS'electricity'
p29
I8
sS'Honda'
p30
I2383
sS'Oka'
p31
I3636
sS'investigation'
p32
I394
sS'Western'
p33
I9
sS'under'
p34
I3637
sS'buyer'
p35
I2241
sS'herbicide'
p36
I10
sS'pride'
p37
I3638
sS'worth'
p38
I1169
sS'founding'
p39
I4373
sS'placed'
p40
I1132
sS'pact'
p41
I1956
sS'legislators'
p42
I3639
sS'Pilgrim'
p43
I2440
sS'propane'
p44
I11
sS'Industry'
p45
I3641
sS'1,111'
p46
I77
sS'costume'
p47
I2148
sS'homes'
p48
I3527
sS'stolen'
p49
I4423
sS'every'
p50
I3643
sS'Pressed'
p51
I2385
sS'reforms'
p52
I2386
sS'affect'
p53
I2387
sS'GM'
p54
I3644
sS'sleek'
p55
I2388
sS'bringing'
p56
I14
sS'trailer'
p57
I1851
sS'vast'
p58
I2389
sS'Continental'
p59
I3630
sS'disturb'
p60
I15
sS'Maxwell'
p61
I16
sS'investigator'
p62
I1171
sS'crops'
p63
I2391
sS'cause'
p64
I2173
sS'companies'
p65
I2392
sS'solution'
p66
I2393
sS'viable'
p67
I1575
sS'samurai'
p68
I1172
sS'Nasdaq'
p69
I17
sS'specialties'
p70
I18
sS'announced'
p71
I1173
sS'cholesterol'
p72
I2395
sS'tours'
p73
I578
sS'Paul'
p74
I19
sS'Hess'
p75
I1174
sS'heading'
p76
I2396
sS'Europeans'
p77
I3646
sS'non-violent'
p78
I20
sS'Pinkerton'
p79
I21
sS'charter'
p80
I22
sS'expanded'
p81
I761
sS'force'
p82
I2397
sS'restated'
p83
I579
sS'guidelines'
p84
I3649
sS'estimates'
p85
I3650
sS'direct'
p86
I3651
sS'anti-smoking'
p87
I1847
sS'chef'
p88
I1175
sS'elegant'
p89
I24
sS'second'
p90
I25
sS'street'
p91
I3652
sS'Gideon'
p92
I3653
sS'Collins'
p93
I1176
sS'sterile'
p94
I26
sS'machines'
p95
I1177
sS'Saint-Saens'
p96
I3654
sS'even'
p97
I2399
sS'established'
p98
I1178
sS'Counterpoint'
p99
I27
sS'errors'
p100
I28
sS'previously'
p101
I2342
sS'postpone'
p102
I1170
sS'defenses'
p103
I1577
sS'contributed'
p104
I29
sS'fingers'
p105
I30
sS'poison'
p106
I2537
sS'spokesman'
p107
I2402
sS'hostile'
p108
I2177
sS'above'
p109
I2545
sS'conduct'
p110
I3658
sS'new'
p111
I2404
sS'net'
p112
I162
sS'increasing'
p113
I31
sS'officially'
p114
I1179
sS'consisting'
p115
I1180
sS'seeks'
p116
I3659
sS'shocks'
p117
I32
sS'specialist'
p118
I33
sS'Brown'
p119
I1762
sS'3/8'
p120
I2149
sS'men'
p121
I179
sS'disposable'
p122
I2407
sS'Budget'
p123
I35
sS'here'
p124
I36
sS'hundreds'
p125
I3660
sS'conglomerate'
p126
I1183
sS'reported'
p127
I37
sS'protection'
p128
I1184
sS'studio'
p129
I3661
sS'active'
p130
I2412
sS'100'
p131
I2413
sS'101'
p132
I2414
sS'obtained'
p133
I1185
sS'1985'
p134
I3596
sS'balance'
p135
I2590
sS'Merrill'
p136
I2583
sS'ventures'
p137
I2587
sS'items'
p138
I1186
sS'employees'
p139
I1187
sS'climbed'
p140
I39
sS'regulators'
p141
I981
sS'reports'
p142
I40
sS'ignoring'
p143
I2415
sS'credit'
p144
I2416
sS'Stelco'
p145
I41
sS'Wellington'
p146
I2281
sS'neurologist'
p147
I42
sS'military'
p148
I43
sS'settled'
p149
I2611
sS'issuers'
p150
I3668
sS'criticism'
p151
I44
sS'golden'
p152
I45
sS'Petty'
p153
I3669
sS'Group'
p154
I3670
sS'home'
p155
I2330
sS'campaign'
p156
I2417
sS'owed'
p157
I765
sS'St.'
p158
I2418
sS')'
p159
I3538
sS'Relations'
p160
I2419
sS'replace'
p161
I46
sS'brought'
p162
I47
sS'Also'
p163
I2420
sS'undesirable'
p164
I2443
sS'Health'
p165
I1190
sS'Khan'
p166
I3240
sS'Basin'
p167
I48
sS'total'
p168
I1191
sS'indictment'
p169
I1381
sS'unit'
p170
I49
sS'hoping'
p171
I767
sS'contractions'
p172
I1192
sS'swings'
p173
I3672
sS'marketers'
p174
I50
sS'would'
p175
I3673
sS'carpet'
p176
I1761
sS'nine'
p177
I1805
sS'hospital'
p178
I3674
sS'Nonetheless'
p179
I205
sS'June'
p180
I3676
sS'chooses'
p181
I1194
sS'music'
p182
I51
sS'asset'
p183
I3677
sS'strike'
p184
I52
sS'survive'
p185
I2425
sS'type'
p186
I2426
sS'until'
p187
I53
sS'PaineWebber'
p188
I1195
sS'main'
p189
I2776
sS'Ark.'
p190
I3678
sS'relax'
p191
I54
sS'successful'
p192
I55
sS'brings'
p193
I56
sS'training'
p194
I401
sS'audit'
p195
I1079
sS'hurt'
p196
I57
sS'phone'
p197
I3680
sS'Datapoint'
p198
I296
sS'Stock'
p199
I771
sS'arms'
p200
I2422
sS'charged'
p201
I1684
sS'emeritus'
p202
I1197
sS'90'
p203
I58
sS'hole'
p204
I59
sS'92'
p205
I60
sS'blocking'
p206
I1198
sS'circumstances'
p207
I61
sS'Salomon'
p208
I13
sS'1990'
p209
I1200
sS'1993'
p210
I1201
sS'1992'
p211
I1202
sS'join'
p212
I3684
sS'1994'
p213
I1203
sS'1997'
p214
I2710
sS'rights'
p215
I2431
sS'pursue'
p216
I62
sS'Exchequer'
p217
I1979
sS'work'
p218
I1204
sS'gasoline'
p219
I2433
sS'Most'
p220
I1948
sS'movies'
p221
I2434
sS'itself'
p222
I3243
sS'era'
p223
I1205
sS'install'
p224
I3685
sS'leaped'
p225
I322
sS'guise'
p226
I323
sS'experts'
p227
I3827
sS'2.3'
p228
I2206
sS'revenues'
p229
I64
sS'my'
p230
I3686
sS'example'
p231
I65
sS'male-fertile'
p232
I3687
sS'phrase'
p233
I1525
sS'Owen'
p234
I2178
sS'receivables'
p235
I34
sS'La'
p236
I67
sS'cited'
p237
I1207
sS'in'
p238
I2595
sS'laughs'
p239
I2437
sS'November'
p240
I3604
sS'honey'
p241
I348
sS'indicates'
p242
I1208
sS'woman'
p243
I4249
sS'caution'
p244
I2669
sS'Holding'
p245
I357
sS'Digital'
p246
I2748
sS'story'
p247
I4331
sS'attract'
p248
I3690
sS'totaled'
p249
I1209
sS'risk'
p250
I3640
sS'male-sterile'
p251
I3691
sS'end'
p252
I3692
sS'recovery'
p253
I1210
sS'knows'
p254
I1449
sS'carriers'
p255
I1211
sS'provide'
p256
I1212
sS'Journal'
p257
I1213
sS'customers'
p258
I4470
sS'damage'
p259
I69
sS'machine'
p260
I70
sS'how'
p261
I71
sS'hot'
p262
I72
sS'Jack'
p263
I2441
sS'accusations'
p264
I3122
sS'interview'
p265
I1214
sS'gate'
p266
I3694
sS'ordinary'
p267
I1215
sS'Co.'
p268
I4434
sS'beach'
p269
I1216
sS'77.3'
p270
I75
sS'Zealand'
p271
I1217
sS'badly'
p272
I3696
sS'regional'
p273
I12
sS'minority'
p274
I2444
sS'L.'
p275
I78
sS'after'
p276
I1218
sS'lab'
p277
I1219
sS'Ocean'
p278
I1220
sS'Will'
p279
I1221
sS'wrong'
p280
I79
sS'mph'
p281
I1766
sS'Yorker'
p282
I3698
sS'Hungary'
p283
I1585
sS'president'
p284
I2446
sS'law'
p285
I1222
sS'Ebensburg'
p286
I2447
sS'purchase'
p287
I2448
sS'All'
p288
I2449
sS'attempt'
p289
I2450
sS'7/8'
p290
I3699
sS'effective'
p291
I80
sS'Civil'
p292
I2452
sS'wins'
p293
I81
sS'acknowledged'
p294
I3701
sS'Tiant'
p295
I82
sS'Telerate'
p296
I2454
sS'think'
p297
I2800
sS'cigarettes'
p298
I83
sS'Salinas'
p299
I3703
sS'maintain'
p300
I2455
sS'chemical'
p301
I2750
sS'Another'
p302
I84
sS'Rouge'
p303
I2840
sS'uninsured'
p304
I2456
sS'Fannie'
p305
I1223
sS'order'
p306
I1224
sS'wind'
p307
I85
sS'operations'
p308
I2458
sS'Brazil'
p309
I405
sS'office'
p310
I1225
sS'Agnelli'
p311
I2459
sS'Blackstone'
p312
I86
sS'fall'
p313
I3016
sS'vary'
p314
I87
sS'satisfied'
p315
I1226
sS'parts'
p316
I2295
sS'6.7'
p317
I1227
sS'6.6'
p318
I1228
sS'6.5'
p319
I1229
sS'Ontario'
p320
I406
sS'6.3'
p321
I1231
sS'Inner'
p322
I1232
sS'12.5'
p323
I1233
sS'innovative'
p324
I1234
sS'Canadian'
p325
I2076
sS'before'
p326
I2460
sS'His'
p327
I90
sS'fit'
p328
I91
sS'somewhere'
p329
I1235
sS'PRI'
p330
I2463
sS'50,000'
p331
I1236
sS'Here'
p332
I3708
sS'better'
p333
I481
sS'production'
p334
I1237
sS'16.3'
p335
I3709
sS'400'
p336
I3710
sS'Judge'
p337
I1238
sS'weeks'
p338
I2467
sS'easier'
p339
I92
sS'overcome'
p340
I2468
sS'inventory'
p341
I3831
sS'then'
p342
I1239
sS'them'
p343
I1240
sS'S&Ls'
p344
I2469
sS'spray'
p345
I1938
sS'weakness'
p346
I2470
sS'slate'
p347
I93
sS'safe'
p348
I3250
sS'Thomas'
p349
I2390
sS'break'
p350
I1241
sS'educating'
p351
I94
sS'therapy'
p352
I2472
sS'reaches'
p353
I3444
sS'they'
p354
I1242
sS'one'
p355
I408
sS'slats'
p356
I96
sS'bank'
p357
I1243
sS'Control'
p358
I1244
sS'represents'
p359
I97
sS'30-year'
p360
I3713
sS'pollution-control'
p361
I2473
sS'Gary'
p362
I3425
sS'Indeed'
p363
I2474
sS'India'
p364
I524
sS'Four'
p365
I3714
sS'Milan'
p366
I2475
sS'Planning'
p367
I2476
sS'Tacker'
p368
I2477
sS'each'
p369
I3717
sS'went'
p370
I2480
sS'7.90'
p371
I1246
sS'7.91'
p372
I1247
sS'Transport'
p373
I3718
sS'mean'
p374
I536
sS'lifted'
p375
I1248
sS'financial'
p376
I99
sS'directly'
p377
I1592
sS'independent'
p378
I1383
sS'series'
p379
I100
sS'crimes'
p380
I1249
sS'Eastern'
p381
I996
sS'Aside'
p382
I1250
sS'Stelzer'
p383
I1251
sS'marital'
p384
I2484
sS'vote'
p385
I410
sS'used'
p386
I1971
sS'trading'
p387
I2485
sS'combining'
p388
I3723
sS'substantially'
p389
I101
sS'laboratory'
p390
I102
sS'dawn'
p391
I2487
sS'sounds'
p392
I2808
sS'contend'
p393
I2488
sS'Hahn'
p394
I103
sS'20.125'
p395
I104
sS'network'
p396
I1252
sS'driving'
p397
I3724
sS'display'
p398
I2361
sS'Chancellor'
p399
I3725
sS'waive'
p400
I105
sS'crucial'
p401
I2489
sS'monitor'
p402
I2771
sS'vessels'
p403
I1253
sS'content'
p404
I2490
sS'Transmission'
p405
I1973
sS'encourage'
p406
I106
sS'unrelated'
p407
I2394
sS'Capel'
p408
I992
sS'human-rights'
p409
I2604
sS'surprise'
p410
I2491
sS'newly'
p411
I3727
sS'size'
p412
I1595
sS'sluggish'
p413
I2492
sS'Chivas'
p414
I107
sS'housing'
p415
I1118
sS'disputed'
p416
I1254
sS'written'
p417
I2256
sS'veto'
p418
I1255
sS'University'
p419
I108
sS'given'
p420
I4031
sS'free'
p421
I3728
sS'standard'
p422
I1256
sS'admits'
p423
I1257
sS'disputes'
p424
I1258
sS'streamline'
p425
I3729
sS'time-limited'
p426
I3730
sS'boosting'
p427
I3731
sS'Minpeco'
p428
I2495
sS'estimate'
p429
I110
sS'Lecheria'
p430
I2496
sS'Frankfurt'
p431
I111
sS'1.8415'
p432
I2497
sS'Nixon'
p433
I2498
sS'delight'
p434
I2605
sS'enormous'
p435
I112
sS'won'
p436
I1933
sS'Monday'
p437
I413
sS'created'
p438
I1259
sS'September'
p439
I1260
sS'National'
p440
I1261
sS'Mingo'
p441
I113
sS'days'
p442
I3733
sS'show'
p443
I2850
sS'pence'
p444
I3734
sS'AMERICAN'
p445
I1262
sS'levels'
p446
I779
sS'oppose'
p447
I1263
sS'smokers'
p448
I3067
sS'Paris'
p449
I1023
sS'1970s'
p450
I114
sS'moving'
p451
I4449
sS'caught'
p452
I1597
sS'user'
p453
I1976
sS'enjoy'
p454
I3647
sS'U.K.'
p455
I1264
sS'Mediobanca'
p456
I1265
sS'cup'
p457
I3262
sS'features'
p458
I2501
sS'economists'
p459
I2502
sS'researcher'
p460
I3736
sS'Ackerman'
p461
I1266
sS'primary'
p462
I3737
sS'executions'
p463
I2503
sS'clear'
p464
I1909
sS'featured'
p465
I2504
sS'relations'
p466
I2190
sS'another'
p467
I1267
sS'comic'
p468
I1268
sS'ditch'
p469
I2505
sS'electronic'
p470
I1270
sS'Azoff'
p471
I1271
sS'illustrate'
p472
I1272
sS'anyone'
p473
I2811
sS'rated'
p474
I1273
sS'service'
p475
I115
sS'attach'
p476
I2191
sS'lawsuits'
p477
I116
sS'takeovers'
p478
I1274
sS'free-lance'
p479
I1598
sS'approximately'
p480
I1275
sS'heights'
p481
I3127
sS'needed'
p482
I117
sS'Devario'
p483
I3742
sS'master'
p484
I118
sS'listed'
p485
I119
sS'draft'
p486
I417
sS'Mesa'
p487
I2506
sS'bitter'
p488
I120
sS'ranging'
p489
I121
sS'Alexander'
p490
I122
sS'chanted'
p491
I1277
sS'urban'
p492
I3747
sS'190-point'
p493
I1278
sS'B'
p494
I1279
sS'luxury'
p495
I1294
sS'collapse'
p496
I123
sS'tool'
p497
I3749
sS'diversified'
p498
I1280
sS'serve'
p499
I3750
sS'took'
p500
I3751
sS'rejected'
p501
I1281
sS'kiddies'
p502
I3165
sS'western'
p503
I3753
sS'somewhat'
p504
I2507
sS'practiced'
p505
I2609
sS'Communications'
p506
I4486
sS'begins'
p507
I2508
sS'distance'
p508
I2509
sS'composer'
p509
I814
sS'Code'
p510
I124
sS'target'
p511
I3193
sS'showed'
p512
I125
sS'Coda'
p513
I126
sS'programs'
p514
I2610
sS'tree'
p515
I127
sS'likely'
p516
I2398
sS'nations'
p517
I128
sS'project'
p518
I129
sS'matter'
p519
I2511
sS'Unix'
p520
I2326
sS'classes'
p521
I3755
sS'silly'
p522
I2512
sS'Sea'
p523
I1282
sS'budget'
p524
I762
sS'Sen'
p525
I1283
sS'feeling'
p526
I130
sS'powers'
p527
I1284
sS'acquisition'
p528
I131
sS'interests'
p529
I1285
sS'Vice'
p530
I1365
sS'fashion'
p531
I3756
sS'sees'
p532
I2517
sS'steelmaker'
p533
I2518
sS'willingness'
p534
I132
sS'Chicago'
p535
I133
sS'ran'
p536
I3757
sS'HealthVest'
p537
I3758
sS'mind'
p538
I2519
sS'mine'
p539
I751
sS'500,000'
p540
I1286
sS'spent'
p541
I3251
sS'talking'
p542
I3759
sS'seed'
p543
I2521
sS'manner'
p544
I1287
sS'Instead'
p545
I1288
sS'seem'
p546
I2523
sS'Haussmann'
p547
I134
sS'seek'
p548
I2524
sS'relatively'
p549
I3761
sS'Pravda'
p550
I1289
sS'forced'
p551
I1290
sS'strength'
p552
I1291
sS'1969'
p553
I3762
sS'responsible'
p554
I136
sS'floating-rate'
p555
I137
sS'isolated'
p556
I3764
sS'thorough'
p557
I3765
sS'indexes'
p558
I1292
sS'sound'
p559
I2906
sS'subjects'
p560
I1293
sS'Minister'
p561
I138
sS'doors'
p562
I797
sS'brains'
p563
I1602
sS'pension'
p564
I1156
sS'dragged'
p565
I699
sS'Stevenson'
p566
I3452
sS'Bank'
p567
I140
sS'unsecured'
p568
I1297
sS'concedes'
p569
I141
sS'acquire'
p570
I1299
sS'transactions'
p571
I142
sS'Ogden'
p572
I3767
sS'pretty'
p573
I1916
sS'Arizona'
p574
I674
sS'Mead'
p575
I1302
sS'letter'
p576
I143
sS'8.05'
p577
I3769
sS'phase'
p578
I1303
sS'Aug.'
p579
I2321
sS'Alabama'
p580
I2527
sS'Coca-Cola'
p581
I2528
sS'Bond'
p582
I1304
sS'stock-price'
p583
I841
sS'singer'
p584
I145
sS'antitrust'
p585
I848
sS'professor'
p586
I147
sS'camp'
p587
I148
sS'flow'
p588
I3770
sS'newcomers'
p589
I1306
sS'treaty'
p590
I3322
sS'competitors'
p591
I2531
sS'points'
p592
I2532
sS'sources'
p593
I2307
sS'principle'
p594
I2533
sS'Giovanni'
p595
I593
sS'Institutes'
p596
I1309
sS'voting'
p597
I1310
sS'consumer'
p598
I2534
sS'notion'
p599
I1058
sS'came'
p600
I149
sS'reserve'
p601
I1312
sS'saying'
p602
I150
sS'reactor'
p603
I151
sS'O.'
p604
I787
sS'reductions'
p605
I3778
sS'meetings'
p606
I152
sS'labels'
p607
I3348
sS'ending'
p608
I2536
sS'showing'
p609
I1994
sS'liberty'
p610
I3657
sS'participate'
p611
I154
sS'Anne'
p612
I3356
sS'Congressional'
p613
I155
sS'European'
p614
I1313
sS'Dec.'
p615
I1314
sS'20-year'
p616
I4627
sS'just'
p617
I2618
sS'Unocal'
p618
I1073
sS'representing'
p619
I420
sS'Republicans'
p620
I1317
sS'Free'
p621
I2541
sS'interbank'
p622
I157
sS'Records'
p623
I3781
sS'theme'
p624
I158
sS'Inc.'
p625
I1604
sS'pursuing'
p626
I1319
sS'announce'
p627
I3782
sS'adequate'
p628
I1320
sS'rice'
p629
I159
sS'jailed'
p630
I2543
sS'smaller'
p631
I4538
sS'wearing'
p632
I2544
sS'plate'
p633
I160
sS'Spielvogel'
p634
I1696
sS'10'
p635
I2815
sS'de'
p636
I1322
sS'stop'
p637
I2546
sS'television'
p638
I1605
sS'preferred'
p639
I1323
sS'yielded'
p640
I1324
sS'criticized'
p641
I3785
sS'Ogilvy'
p642
I595
sS'Bognato'
p643
I2198
sS'equity-purchase'
p644
I2547
sS'altogether'
p645
I161
sS'report'
p646
I3787
sS'Organization'
p647
I2548
sS'vividly'
p648
I1325
sS'Labor'
p649
I788
sS'Soviet'
p650
I1326
sS'volatility'
p651
I963
sS'Senators'
p652
I164
sS'runs'
p653
I1327
sS'spots'
p654
I1119
sS'bar'
p655
I2550
sS'Moore'
p656
I3788
sS'Armstrong'
p657
I1328
sS'covering'
p658
I1329
sS'ever'
p659
I2405
sS'Washington'
p660
I2552
sS'twice'
p661
I3791
sS'Clinic'
p662
I1330
sS'three-year'
p663
I165
sS'rival'
p664
I422
sS'release'
p665
I166
sS'told'
p666
I1181
sS'Clearly'
p667
I167
sS'mergers'
p668
I3792
sS'Clifford'
p669
I3441
sS'respond'
p670
I168
sS'mandatory'
p671
I169
sS'District'
p672
I995
sS'Gorbachev'
p673
I1333
sS'contract-drilling'
p674
I4762
sS'observed'
p675
I1334
sS'decided'
p676
I1005
sS'projections'
p677
I1335
sS'cattle'
p678
I1336
sS'discussions'
p679
I1337
sS'John'
p680
I172
sS'half-an-hour'
p681
I2556
sS'best'
p682
I173
sS'subject'
p683
I2557
sS'sedans'
p684
I174
sS'said'
p685
I2558
sS'capacity'
p686
I3794
sS'lots'
p687
I175
sS'away'
p688
I1338
sS'141.90'
p689
I176
sS'patients'
p690
I4629
sS'unable'
p691
I1339
sS'cooperation'
p692
I1340
sS'Prices'
p693
I1341
sS'drawn'
p694
I1342
sS'Technologies'
p695
I1343
sS'tolerance'
p696
I2559
sS'yields'
p697
I811
sS'preserve'
p698
I177
sS'wage'
p699
I3260
sS'we'
p700
I1344
sS'never'
p701
I2406
sS'terms'
p702
I1345
sS'extend'
p703
I1051
sS'nature'
p704
I180
sS'wo'
p705
I1346
sS'Financial'
p706
I2707
sS'however'
p707
I3795
sS'33,000'
p708
I3510
sS'U.S.-Japan'
p709
I3848
sS'drew'
p710
I2408
sS'clues'
p711
I1347
sS'news'
p712
I3798
sS'convertible'
p713
I1348
sS'debt'
p714
I182
sS'improve'
p715
I3799
sS'suggested'
p716
I2560
sS'received'
p717
I1350
sS'essentially'
p718
I3524
sS'providing'
p719
I2202
sS'accused'
p720
I2346
sS'met'
p721
I2410
sS'resistant'
p722
I2561
sS'country'
p723
I183
sS'readers'
p724
I790
sS'pollinated'
p725
I2563
sS'tracks'
p726
I1781
sS'against'
p727
I2564
sS'players'
p728
I3804
sS'merging'
p729
I3540
sS'109'
p730
I2411
sS'planned'
p731
I184
sS'faces'
p732
I3807
sS'Leche'
p733
I185
sS'requests'
p734
I1353
sS'argue'
p735
I186
sS'Several'
p736
I942
sS'asked'
p737
I187
sS'Feb.'
p738
I1354
sS'N.M.'
p739
I2513
sS'tone'
p740
I1355
sS'1.5'
p741
I4632
sS'appeared'
p742
I2565
sS'Gas'
p743
I1402
sS'irresponsible'
p744
I188
sS'excess'
p745
I1782
sS'COMMERCIAL'
p746
I2566
sS'represented'
p747
I3662
sS'tons'
p748
I1356
sS'massive'
p749
I403
sS'initiative'
p750
I2567
sS'Board'
p751
I1357
sS'tony'
p752
I1358
sS'250'
p753
I189
sS'251'
p754
I190
sS'telecommunications'
p755
I1359
sS'insiders'
p756
I755
sS'conference'
p757
I3811
sS'strong'
p758
I1784
sS'jobless'
p759
I3582
sS'asks'
p760
I1110
sS'basis'
p761
I2570
sS'union'
p762
I1111
sS'Marcos'
p763
I192
sS'Southern'
p764
I3814
sS'three'
p765
I2571
sS'tiny'
p766
I2572
sS'.'
p767
I193
sS'Early'
p768
I2573
sS'commission'
p769
I2574
sS'beer'
p770
I3818
sS'much'
p771
I194
sS'interest'
p772
I2575
sS'basic'
p773
I2576
sS'privilege'
p774
I195
sS'parents'
p775
I791
sS'entered'
p776
I2577
sS'dozens'
p777
I1362
sS'duties'
p778
I1363
sS'threw'
p779
I2579
sS'face-to-face'
p780
I928
sS'life'
p781
I196
sS'AFL-CIO'
p782
I3820
sS'deeper'
p783
I2580
sS'Tokyo'
p784
I197
sS'Pennsylvania'
p785
I3822
sS'<null>'
p786
I1
sS'Poland'
p787
I198
sS'Jan.'
p788
I3960
sS'CD'
p789
I2581
sS'Donovan'
p790
I199
sS'lift'
p791
I200
sS'personally'
p792
I2582
sS'catch'
p793
I3823
sS'NCNB'
p794
I1650
sS'worked'
p795
I201
sS'Trans'
p796
I3824
sS'Secretary'
p797
I3825
sS'applied'
p798
I1366
sS'unpopular'
p799
I2584
sS'save'
p800
I2625
sS'Co'
p801
I2585
sS'publicly'
p802
I1367
sS'economies'
p803
I2586
sS'air'
p804
I1368
sS'employ'
p805
I202
sS'auction'
p806
I3664
sS'near'
p807
I2588
sS'Market'
p808
I764
sS'seeds'
p809
I1112
sS'aid'
p810
I1369
sS'property'
p811
I1370
sS'elaborate'
p812
I38
sS'launched'
p813
I1371
sS'pastry'
p814
I2829
sS'seven'
p815
I2592
sS'changed'
p816
I3665
sS'MCI'
p817
I1018
sS'Mitsui'
p818
I204
sS'played'
p819
I1193
sS'is'
p820
I2593
sS'FHA'
p821
I1196
sS'it'
p822
I2594
sS'holdings'
p823
I191
sS'CVN'
p824
I1373
sS'player'
p825
I206
sS'Bush'
p826
I3826
sS'tissue'
p827
I1374
sS'upscale'
p828
I207
sS'experience'
p829
I600
sS'world-wide'
p830
I1375
sS'Capital'
p831
I208
sS'exile'
p832
I1377
sS'victims'
p833
I796
sS'confident'
p834
I3817
sS'if'
p835
I2597
sS'grown'
p836
I2598
sS'confirmed'
p837
I1378
sS'bottles'
p838
I2599
sS'things'
p839
I209
sS'make'
p840
I2600
sS'leveraged'
p841
I1101
sS'amount'
p842
I1790
sS'Kremlin'
p843
I3829
sS'Ill.'
p844
I1380
sS'feuding'
p845
I210
sS'split'
p846
I211
sS'Of'
p847
I800
sS'President'
p848
I2601
sS'sidelines'
p849
I2602
sS'couple'
p850
I801
sS'analysts'
p851
I3666
sS'fairly'
p852
I213
sS'satellite'
p853
I3722
sS'Institute'
p854
I1384
sS'Maybe'
p855
I214
sS'social'
p856
I602
sS'middle-aged'
p857
I215
sS'hand'
p858
I1385
sS'Angeles'
p859
I216
sS'day'
p860
I3421
sS'Morris'
p861
I2606
sS'Monsanto'
p862
I3834
sS'ownership'
p863
I217
sS'Home'
p864
I1188
sS'insisted'
p865
I3836
sS'opportunity'
p866
I2607
sS'blamed'
p867
I1386
sS'tune'
p868
I218
sS'midsized'
p869
I219
sS'butter'
p870
I2608
sS'kept'
p871
I1387
sS'RJR'
p872
I220
sS'1978'
p873
I1388
sS'she'
p874
I2247
sS'1976'
p875
I1389
sS'1975'
p876
I1390
sS'supervisors'
p877
I2627
sS'1971'
p878
I1391
sS'urged'
p879
I2056
sS'academic'
p880
I221
sS'savings'
p881
I3840
sS'materials'
p882
I542
sS'greatest'
p883
I3841
sS'Batman'
p884
I2212
sS'claims'
p885
I2613
sS'the'
p886
I1393
sS'800'
p887
I2614
sS'corporate'
p888
I222
sS'investments'
p889
I2615
sS'left'
p890
I2616
sS'Pete'
p891
I1394
sS'Swank'
p892
I1395
sS'quoted'
p893
I1396
sS'yen'
p894
I2619
sS'Cambodia'
p895
I1397
sS'aside'
p896
I433
sS'assigned'
p897
I2620
sS'proposes'
p898
I3846
sS'completed'
p899
I1296
sS'Management'
p900
I3279
sS'thanks'
p901
I1398
sS'human'
p902
I1182
sS'Day'
p903
I3937
sS'houses'
p904
I1865
sS'yet'
p905
I2621
sS'succeeding'
p906
I223
sS'previous'
p907
I224
sS'adding'
p908
I1400
sS'buyers'
p909
I2622
sS'designers'
p910
I1405
sS'capacity-expansion'
p911
I1401
sS'ease'
p912
I225
sS'had'
p913
I226
sS'emphasis'
p914
I227
sS'Leonard'
p915
I228
sS'spread'
p916
I1403
sS'board'
p917
I1404
sS'easy'
p918
I1364
sS'News'
p919
I2624
sS'Philip'
p920
I3849
sS'has'
p921
I229
sS'gave'
p922
I3851
sS'Building'
p923
I2626
sS'Santa'
p924
I3468
sS'freedom'
p925
I2339
sS'James'
p926
I3852
sS'posed'
p927
I230
sS'possible'
p928
I231
sS'possibly'
p929
I232
sS'cultural'
p930
I3839
sS'buy-out'
p931
I2628
sS'Chrysler'
p932
I233
sS'wanting'
p933
I2629
sS'judge'
p934
I3854
sS'firmed'
p935
I1399
sS'highly'
p936
I1189
sS'retreat'
p937
I1406
sS'apart'
p938
I3856
sS'desire'
p939
I234
sS'59'
p940
I3857
sS'58'
p941
I3858
sS'gift'
p942
I3859
sS'visible'
p943
I3671
sS'55'
p944
I3861
sS'54'
p945
I3862
sS'Shevardnadze'
p946
I3860
sS'51'
p947
I3863
sS'unnecessary'
p948
I2630
sS'53'
p949
I3865
sS'securities'
p950
I1407
sS'private'
p951
I802
sS'steps'
p952
I235
sS'flaps'
p953
I1651
sS'Jr.'
p954
I2368
sS'Steven'
p955
I236
sS'Lawrence'
p956
I2348
sS'security'
p957
I1409
sS'Agnellis'
p958
I2632
sS'Pentagon'
p959
I237
sS'Prince'
p960
I1425
sS'S.'
p961
I1410
sS'beneficial'
p962
I238
sS'right'
p963
I239
sS'old'
p964
I240
sS'crowd'
p965
I241
sS'people'
p966
I242
sS'successfully'
p967
I3869
sS'Sunbird'
p968
I1411
sS'System'
p969
I1437
sS'elderly'
p970
I2635
sS'50'
p971
I3864
sS'consultants'
p972
I243
sS'Much'
p973
I3870
sS'election'
p974
I3871
sS'unless'
p975
I3470
sS'short-term'
p976
I2636
sS'W.Va'
p977
I2637
sS'consensus'
p978
I808
sS'Nixdorf'
p979
I244
sS'for'
p980
I245
sS'stronger'
p981
I1019
sS'consecutive'
p982
I2240
sS'Nobody'
p983
I2639
sS'reinvest'
p984
I3874
sS'savings-type'
p985
I3875
sS'creative'
p986
I246
sS'everything'
p987
I3876
sS'asking'
p988
I1414
sS'Let'
p989
I1415
sS'motor-control'
p990
I2640
sS'denied'
p991
I1416
sS'offices'
p992
I3867
sS'Accepted'
p993
I3878
sS'Stoll'
p994
I2631
sS'participation'
p995
I1417
sS'He'
p996
I3879
sS'core'
p997
I3880
sS'School'
p998
I1418
sS'expires'
p999
I2218
sS'bold'
p1000
I2641
sS'marketing'
p1001
I1419
sS'corn'
p1002
I3881
sS'predicting'
p1003
I1496
sS'conventional'
p1004
I1794
sS'discount'
p1005
I3882
sS'outlays'
p1006
I3965
sS'Deposit'
p1007
I3883
sS'packages'
p1008
I1349
sS'losing'
p1009
I248
sS'brokerage'
p1010
I249
sS'post'
p1011
I1421
sS'manufacturing'
p1012
I250
sS'properties'
p1013
I1422
sS'First'
p1014
I251
sS'dollars'
p1015
I252
sS'months'
p1016
I1424
sS'rolled'
p1017
I181
sS'magazine'
p1018
I2644
sS'misleading'
p1019
I3884
sS'plus'
p1020
I2516
sS'banker'
p1021
I1426
sS'AG'
p1022
I2050
sS'efforts'
p1023
I3886
sS'Gomez'
p1024
I3887
sS'slightly'
p1025
I253
sS'objectives'
p1026
I608
sS'automatically'
p1027
I2647
sS'Donaldson'
p1028
I66
sS'consulting'
p1029
I254
sS'Express'
p1030
I3675
sS'statements'
p1031
I255
sS'publishing'
p1032
I746
sS'formerly'
p1033
I2650
sS'facility'
p1034
I256
sS'civil'
p1035
I3890
sS'pays'
p1036
I1427
sS'attorney'
p1037
I1886
sS'son'
p1038
I257
sS'administer'
p1039
I258
sS'device'
p1040
I1014
sS'accomplishments'
p1041
I3891
sS'magazines'
p1042
I259
sS'capped'
p1043
I1428
sS'Korean'
p1044
I260
sS'defendants'
p1045
I261
sS'pollen-inhibiting'
p1046
I1429
sS'particularly'
p1047
I3171
sS'branch'
p1048
I2034
sS'Cranston'
p1049
I2653
sS'deal'
p1050
I2633
sS'support'
p1051
I262
sS'flying'
p1052
I828
sS'legislation'
p1053
I1430
sS'cosmetics'
p1054
I1089
sS'one-time'
p1055
I263
sS'fight'
p1056
I1431
sS'fought'
p1057
I3894
sS'authorized'
p1058
I264
sS'wrongdoing'
p1059
I1432
sS'resulted'
p1060
I265
sS'call'
p1061
I2423
sS'was'
p1062
I1433
sS'war'
p1063
I1434
sS'launching'
p1064
I266
sS'interest-rate'
p1065
I1435
sS'head'
p1066
I3895
sS'economics'
p1067
I203
sS'slip'
p1068
I941
sS'form'
p1069
I1614
sS'offer'
p1070
I267
sS'Assume'
p1071
I2662
sS'January'
p1072
I2663
sS'becoming'
p1073
I1436
sS'6'
p1074
I609
sS'removes'
p1075
I3897
sS'landing'
p1076
I2664
sS'somehow'
p1077
I2634
sS'payable'
p1078
I3898
sS'heat'
p1079
I3899
sS'hear'
p1080
I3900
sS'syndicate'
p1081
I2666
sS'insider-trading'
p1082
I3902
sS'true'
p1083
I1439
sS'analyst'
p1084
I2667
sS'reset'
p1085
I1440
sS'Seagram'
p1086
I924
sS'counsel'
p1087
I3903
sS'high-quality'
p1088
I1441
sS'tack'
p1089
I4587
sS'Commission'
p1090
I1412
sS'spun'
p1091
I1937
sS'B.'
p1092
I2323
sS'attached'
p1093
I2670
sS'maximum'
p1094
I1442
sS'devices'
p1095
I269
sS'tell'
p1096
I2427
sS'County'
p1097
I270
sS'Engineering'
p1098
I271
sS'economic'
p1099
I2003
sS'S.p'
p1100
I2671
sS'}'
p1101
I1463
sS'unusually'
p1102
I1444
sS'reform'
p1103
I1621
sS'stages'
p1104
I2672
sS'enthusiastic'
p1105
I3476
sS'refillable'
p1106
I272
sS'<unk>'
p1107
I0
sS'150'
p1108
I273
sS'private-sector'
p1109
I1445
sS'proved'
p1110
I274
sS'156'
p1111
I275
sS'implications'
p1112
I1622
sS'Hudson'
p1113
I3905
sS'one-third'
p1114
I2675
sS'covers'
p1115
I2676
sS'evidence'
p1116
I1447
sS"''"
p1117
I277
sS'mostly'
p1118
I1600
sS'promised'
p1119
I1448
sS'request'
p1120
I3477
sS'Wathen'
p1121
I4661
sS'face'
p1122
I1021
sS'dealer'
p1123
I278
sS'negotiations'
p1124
I279
sS'Intel'
p1125
I4275
sS'Tashi'
p1126
I280
sS'1,000'
p1127
I3478
sS'weakened'
p1128
I1450
sS'floor'
p1129
I281
sS'stake'
p1130
I1451
sS'generally'
p1131
I2680
sS'topped'
p1132
I1452
sS'negotiators'
p1133
I1453
sS'composite'
p1134
I2428
sS'interested'
p1135
I1454
sS'role'
p1136
I282
sS'holding'
p1137
I1455
sS"M'Bow"
p1138
I3679
sS'test'
p1139
I1456
sS'developers'
p1140
I283
sS'roll'
p1141
I284
sS'realize'
p1142
I965
sS'picture'
p1143
I3917
sS'EST'
p1144
I3918
sS"'s"
p1145
I285
sS'get-together'
p1146
I286
sS'models'
p1147
I287
sS'why'
p1148
I2681
sS'Later'
p1149
I1457
sS'Wilmington'
p1150
I1458
sS'deficit-reduction'
p1151
I2374
sS'Trial'
p1152
I1459
sS"'d"
p1153
I288
sS'invested'
p1154
I289
sS'rising'
p1155
I4200
sS'scores'
p1156
I1460
sS'rolling'
p1157
I290
sS"'m"
p1158
I291
sS'Mass.'
p1159
I2685
sS'firms'
p1160
I900
sS'died'
p1161
I2686
sS'Lee'
p1162
I1413
sS'billion'
p1163
I2687
sS'younger'
p1164
I3920
sS'reorganization'
p1165
I293
sS'longer'
p1166
I3921
sS'Estate'
p1167
I1461
sS'excuse'
p1168
I1801
sS'assume'
p1169
I685
sS'T.'
p1170
I2052
sS'proposed'
p1171
I3843
sS'Charles'
p1172
I294
sS'affidavit'
p1173
I1464
sS'together'
p1174
I1465
sS'liquidity'
p1175
I451
sS'fastener'
p1176
I295
sS'warm'
p1177
I2430
sS'time'
p1178
I297
sS'push'
p1179
I298
sS'serious'
p1180
I4231
sS'debate'
p1181
I4625
sS'Moscow'
p1182
I2007
sS'profits'
p1183
I2690
sS'overdue'
p1184
I2691
sS'detective'
p1185
I4075
sS'Mayor'
p1186
I3589
sS'concept'
p1187
I1466
sS'managed'
p1188
I2692
sS'chain'
p1189
I299
sS'Indians'
p1190
I300
sS'alternatives'
p1191
I3925
sS'focus'
p1192
I3926
sS'deliveries'
p1193
I3927
sS'leads'
p1194
I3928
sS'manager'
p1195
I2693
sS'mile'
p1196
I2694
sS'battle'
p1197
I1470
sS'involved'
p1198
I909
sS'milk'
p1199
I2695
sS'Today'
p1200
I3930
sS'row'
p1201
I3931
sS'certainly'
p1202
I1471
sS'hold'
p1203
I301
sS'Columbia'
p1204
I3932
sS'757-200s'
p1205
I2697
sS'balloons'
p1206
I2313
sS'religion'
p1207
I817
sS'technique'
p1208
I2698
sS'Ridley'
p1209
I2700
sS'environment'
p1210
I3934
sS'company'
p1211
I614
sS'finally'
p1212
I2701
sS'compensate'
p1213
I1474
sS'Lighting'
p1214
I302
sS'marks'
p1215
I2702
sS'Atlanta'
p1216
I2703
sS'must'
p1217
I3682
sS'swap'
p1218
I2384
sS'eliminate'
p1219
I303
sS'1991'
p1220
I1199
sS'supported'
p1221
I3481
sS'string'
p1222
I2705
sS'prepaid'
p1223
I304
sS'revamping'
p1224
I305
sS'blase'
p1225
I1476
sS'confidence'
p1226
I922
sS'consolidation'
p1227
I306
sS'choice'
p1228
I307
sS'liability'
p1229
I1477
sS'automobiles'
p1230
I1478
sS'tanks'
p1231
I3939
sS'advised'
p1232
I2706
sS'10-year'
p1233
I1479
sS'word'
p1234
I821
sS'airing'
p1235
I440
sS'blast'
p1236
I1481
sS'Where'
p1237
I2708
sS'minute'
p1238
I308
sS'governments'
p1239
I2709
sS'Just'
p1240
I1484
sS'level'
p1241
I3941
sS'did'
p1242
I2711
sS'Ltd'
p1243
I1946
sS'Tax'
p1244
I309
sS'Intelogic'
p1245
I310
sS'magnet'
p1246
I2713
sS'third-largest'
p1247
I1855
sS'progress'
p1248
I3507
sS'team'
p1249
I312
sS'quick'
p1250
I3944
sS'speculation'
p1251
I314
sS'George'
p1252
I1486
sS'Systems'
p1253
I454
sS'Reich'
p1254
I3189
sS'prevent'
p1255
I315
sS'revolution'
p1256
I1487
sS'says'
p1257
I3946
sS'findings'
p1258
I316
sS'tougher'
p1259
I3947
sS'trend'
p1260
I3948
sS'plunged'
p1261
I63
sS'injunction'
p1262
I3949
sS'sign'
p1263
I317
sS'utility'
p1264
I2345
sS'cost'
p1265
I1488
sS'Northwest'
p1266
I3950
sS'takeoff'
p1267
I3951
sS'patient'
p1268
I3288
sS'Weyerhaeuser'
p1269
I2719
sS'targets'
p1270
I2720
sS'substitute'
p1271
I3952
sS'drinks'
p1272
I3953
sS'majors'
p1273
I2721
sS'Bert'
p1274
I1489
sS'Newsom'
p1275
I3954
sS'adds'
p1276
I2722
sS'appear'
p1277
I1490
sS'economist'
p1278
I1026
sS'shares'
p1279
I1491
sS'Ford'
p1280
I1492
sS'current'
p1281
I318
sS'goes'
p1282
I3956
sS'During'
p1283
I1493
sS'falling'
p1284
I319
sS'appeal'
p1285
I1494
sS'boost'
p1286
I320
sS'collateral'
p1287
I1495
sS'Bill'
p1288
I2724
sS'jury'
p1289
I321
sS'partners'
p1290
I2227
sS'genes'
p1291
I1497
sS'Bids'
p1292
I2726
sS'Aga'
p1293
I3958
sS'exceptions'
p1294
I2435
sS'slow'
p1295
I456
sS'baseball'
p1296
I3961
sS'groups'
p1297
I3962
sS'English'
p1298
I1498
sS'alone'
p1299
I324
sS'based'
p1300
I2228
sS'along'
p1301
I325
sS'refused'
p1302
I4482
sS'My'
p1303
I326
sS'appears'
p1304
I1499
sS'change'
p1305
I1500
sS'Warner'
p1306
I327
sS'passengers'
p1307
I328
sS'Dean'
p1308
I1502
sS'cuckoo'
p1309
I2730
sS'restrictive'
p1310
I3292
sS'brilliant'
p1311
I329
sS'Meanwhile'
p1312
I1029
sS'guilty'
p1313
I3964
sS'restructuring'
p1314
I1420
sS'trial'
p1315
I1503
sS'Associates'
p1316
I330
sS'suggestion'
p1317
I2731
sS'usually'
p1318
I1504
sS'history'
p1319
I1807
sS'studies'
p1320
I331
sS'Maine'
p1321
I3967
sS'confrontation'
p1322
I2642
sS'Canter'
p1323
I332
sS'tasks'
p1324
I333
sS'love'
p1325
I334
sS'Justice'
p1326
I3968
sS'lending'
p1327
I1506
sS'Pennzoil'
p1328
I2013
sS'prefer'
p1329
I335
sS'Brissette'
p1330
I3969
sS'licensing'
p1331
I2000
sS'fake'
p1332
I336
sS'rarely'
p1333
I1507
sS'pitchers'
p1334
I2014
sS'market'
p1335
I1508
sS'everybody'
p1336
I2009
sS'Greenery'
p1337
I3970
sS'Australia'
p1338
I2737
sS'spouses'
p1339
I2401
sS'working'
p1340
I338
sS'prove'
p1341
I1510
sS'wicker'
p1342
I339
sS'give'
p1343
I2436
sS'visit'
p1344
I2739
sS'third-quarter'
p1345
I3972
sS'by'
p1346
I823
sS'insider'
p1347
I2024
sS'2645.08'
p1348
I340
sS'jam'
p1349
I1512
sS'opposed'
p1350
I341
sS'memory'
p1351
I3975
sS'scope'
p1352
I342
sS'Those'
p1353
I343
sS'``'
p1354
I344
sS'October'
p1355
I3977
sS'continue'
p1356
I247
sS'club'
p1357
I1513
sS'minimum-wage'
p1358
I1514
sS'Mount'
p1359
I1515
sS'Public'
p1360
I2226
sS'refrain'
p1361
I345
sS'clue'
p1362
I1516
sS'Barr'
p1363
I346
sS'rigid'
p1364
I2741
sS'Time'
p1365
I3979
sS'cases'
p1366
I3980
sS'effort'
p1367
I2742
sS'behalf'
p1368
I347
sS'fly'
p1369
I2743
sS'involve'
p1370
I2438
sS'valued'
p1371
I349
sS'currency'
p1372
I350
sS'German'
p1373
I3981
sS'thousands'
p1374
I3982
sS'originally'
p1375
I351
sS'cap'
p1376
I1519
sS'genetic'
p1377
I1071
sS'Kume'
p1378
I3056
sS'Pacific'
p1379
I2744
sS'believes'
p1380
I352
sS'printing'
p1381
I353
sS'values'
p1382
I354
sS'can'
p1383
I1520
sS'believed'
p1384
I355
sS'Our'
p1385
I356
sS'newspapers'
p1386
I1423
sS'most'
p1387
I3160
sS'spy'
p1388
I1521
sS'want'
p1389
I68
sS'figure'
p1390
I3984
sS'Federal'
p1391
I358
sS'expanding'
p1392
I1522
sS'chip'
p1393
I1523
sS'restaurants'
p1394
I3200
sS'topic'
p1395
I1524
sS'spending'
p1396
I834
sS'critic'
p1397
I3985
sS'performed'
p1398
I820
sS'allowed'
p1399
I359
sS'occur'
p1400
I1526
sS'gimmickry'
p1401
I360
sS'parliamentary'
p1402
I3988
sS'requirements'
p1403
I3989
sS'Dataproducts'
p1404
I1528
sS'discussion'
p1405
I1529
sS'watching'
p1406
I4662
sS'write'
p1407
I1530
sS'actual'
p1408
I3584
sS'fourth'
p1409
I3991
sS'Louis'
p1410
I4082
sS'Including'
p1411
I2645
sS'subsidiaries'
p1412
I4601
sS'sworn'
p1413
I2751
sS'Why'
p1414
I362
sS'five-year'
p1415
I363
sS'!'
p1416
I3061
sS'product'
p1417
I1532
sS'145'
p1418
I2752
sS'building'
p1419
I1754
sS'huge'
p1420
I627
sS'may'
p1421
I2753
sS'Average'
p1422
I3993
sS'sour'
p1423
I2745
sS'spot'
p1424
I364
sS'membership'
p1425
I2755
sS'produce'
p1426
I1534
sS'designed'
p1427
I2756
sS'Lufkin'
p1428
I3995
sS'date'
p1429
I365
sS'such'
p1430
I366
sS'truly'
p1431
I1636
sS'data'
p1432
I367
sS'grow'
p1433
I2758
sS'man'
p1434
I2759
sS'Still'
p1435
I3996
sS'natural'
p1436
I368
sS'remember'
p1437
I1537
sS'sectors'
p1438
I369
sS'maybe'
p1439
I2201
sS'futures'
p1440
I1539
sS'borrowing'
p1441
I2761
sS'tale'
p1442
I2762
sS'subminimum'
p1443
I3066
sS'criminal'
p1444
I3416
sS'ones'
p1445
I4663
sS'so'
p1446
I370
sS'basket'
p1447
I2763
sS'pollution'
p1448
I3297
sS'pulled'
p1449
I371
sS'talk'
p1450
I2764
sS'exclusive'
p1451
I1006
sS'hoped'
p1452
I3307
sS'serving'
p1453
I1541
sS'Series'
p1454
I2760
sS'nerve'
p1455
I1482
sS'mainly'
p1456
I4000
sS'raised'
p1457
I1542
sS'years'
p1458
I372
sS'stability'
p1459
I2767
sS'hiring'
p1460
I2246
sS'Genetic'
p1461
I1544
sS'cuts'
p1462
I2768
sS'argued'
p1463
I2769
sS'managers'
p1464
I2649
sS'cold'
p1465
I1545
sS'still'
p1466
I1546
sS'stock-index'
p1467
I4002
sS'Shaw'
p1468
I829
sS'Accord'
p1469
I4003
sS'overhaul'
p1470
I374
sS'courthouse'
p1471
I4004
sS'interesting'
p1472
I2772
sS'Lehman'
p1473
I1941
sS'troubles'
p1474
I377
sS'repertoire'
p1475
I3230
sS'window'
p1476
I1548
sS'offers'
p1477
I4005
sS'listing'
p1478
I2773
sS'policy'
p1479
I2774
sS'mail'
p1480
I2775
sS'troubled'
p1481
I379
sS'decades'
p1482
I380
sS'into'
p1483
I830
sS'happened'
p1484
I4007
sS'TCMP'
p1485
I381
sS'finance'
p1486
I2777
sS'thereby'
p1487
I382
sS'views'
p1488
I2778
sS'impulses'
p1489
I2779
sS'100,000'
p1490
I1549
sS'sweetened'
p1491
I1550
sS'undisclosed'
p1492
I2780
sS'introduce'
p1493
I1551
sS'nation'
p1494
I383
sS'records'
p1495
I384
sS'Because'
p1496
I1039
sS'compelled'
p1497
I385
sS'Kemp'
p1498
I386
sS'not'
p1499
I1553
sS'R.'
p1500
I1555
sS'now'
p1501
I1556
sS'provision'
p1502
I1557
sS'discuss'
p1503
I1558
sS'nor'
p1504
I1559
sS'down'
p1505
I2652
sS'term'
p1506
I4008
sS'attorneys'
p1507
I2781
sS'name'
p1508
I4009
sS'Their'
p1509
I2023
sS'resignation'
p1510
I2782
sS'drop'
p1511
I1560
sS'imports'
p1512
I4345
sS'gain'
p1513
I2354
sS'Stanley'
p1514
I388
sS'entirely'
p1515
I1561
sS'quarter'
p1516
I389
sS'Milk'
p1517
I3776
sS'Bros.'
p1518
I4010
sS'A'
p1519
I76
sS'weighted'
p1520
I4011
sS'significantly'
p1521
I4773
sS'Holdings'
p1522
I2784
sS'Gonzalez'
p1523
I2143
sS'revised'
p1524
I390
sS'plant'
p1525
I630
sS'challenges'
p1526
I1564
sS'begun'
p1527
I4012
sS'year'
p1528
I1565
sS'worried'
p1529
I466
sS'pills'
p1530
I1567
sS'Carolina'
p1531
I1376
sS'hacker'
p1532
I4014
sS'living'
p1533
I2785
sS'shown'
p1534
I1569
sS'accomplish'
p1535
I1570
sS'container'
p1536
I391
sS'opened'
p1537
I1571
sS'bullish'
p1538
I1572
sS'space'
p1539
I1573
sS'profit'
p1540
I4017
sS'Michigan'
p1541
I392
sS'factory'
p1542
I4018
sS'increase'
p1543
I1574
sS'mess'
p1544
I3697
sS'seriously'
p1545
I393
sS'bailout'
p1546
I2788
sS'suggesting'
p1547
I395
sS'EG&G'
p1548
I2789
sS'correct'
p1549
I2790
sS'shows'
p1550
I1576
sS'Commerce'
p1551
I2792
sS'earlier'
p1552
I2793
sS'allegation'
p1553
I1043
sS'Rights'
p1554
I2794
sS'cars'
p1555
I1578
sS'million'
p1556
I397
sS'possibility'
p1557
I398
sS'economy'
p1558
I1531
sS'Castro'
p1559
I2445
sS'plea'
p1560
I399
sS'repurchase'
p1561
I1579
sS'Security'
p1562
I4021
sS'remainder'
p1563
I400
sS'care'
p1564
I1581
sS'advance'
p1565
I2796
sS'Tiananmen'
p1566
I2429
sS'Already'
p1567
I2797
sS'where'
p1568
I467
sS'merger'
p1569
I3180
sS'vehemently'
p1570
I1583
sS'replacement'
p1571
I1095
sS'motion'
p1572
I4022
sS'thing'
p1573
I2798
sS'fellow'
p1574
I3526
sS'plane'
p1575
I632
sS'place'
p1576
I4024
sS'Brantford'
p1577
I2654
sS'invitation'
p1578
I1584
sS'routes'
p1579
I404
sS'economic-forecasting'
p1580
I2799
sS'promotion'
p1581
I1586
sS'Gnu-Emacs'
p1582
I2248
sS'discontinued'
p1583
I4025
sS'frequent'
p1584
I2801
sS'first'
p1585
I2802
sS'Even'
p1586
I1587
sS'Rated'
p1587
I88
sS'revenue'
p1588
I4026
sS'spoken'
p1589
I407
sS'clause'
p1590
I2466
sS'There'
p1591
I1589
sS'Asia'
p1592
I1590
sS'yourself'
p1593
I95
sS'Graeme'
p1594
I2803
sS'soaring'
p1595
I4028
sS'Krebs'
p1596
I2479
sS'Backer'
p1597
I2656
sS'suspended'
p1598
I2805
sS'carry'
p1599
I2806
sS'corporations'
p1600
I2807
sS'array'
p1601
I4029
sS'drove'
p1602
I1593
sS'open'
p1603
I411
sS'tomorrow'
p1604
I1594
sS'millions'
p1605
I4030
sS'city'
p1606
I412
sS'Levy'
p1607
I3350
sS'others'
p1608
I3365
sS'sheet'
p1609
I1596
sS'district'
p1610
I4032
sS'J.P.'
p1611
I2810
sS'structured'
p1612
I414
sS'Commercial'
p1613
I4034
sS'1.50'
p1614
I3302
sS'Dow'
p1615
I3072
sS'stimulation'
p1616
I4036
sS'indicate'
p1617
I415
sS'returns'
p1618
I4037
sS'2'
p1619
I416
sS'SEC'
p1620
I4038
sS'convention'
p1621
I4039
sS'Cult'
p1622
I4040
sS'Such'
p1623
I4041
sS'white'
p1624
I4042
sS'Data'
p1625
I4043
sS'friend'
p1626
I1599
sS'editor'
p1627
I2657
sS'exploring'
p1628
I4045
sS'mining'
p1629
I2520
sS'fraction'
p1630
I2658
sS'allegedly'
p1631
I2813
sS'that'
p1632
I1601
sS'season'
p1633
I4048
sS'Hispanic'
p1634
I146
sS'criticize'
p1635
I1816
sS'hope'
p1636
I1034
sS'packet'
p1637
I1047
sS'specialists'
p1638
I419
sS'clients'
p1639
I935
sS'surged'
p1640
I2539
sS'than'
p1641
I1603
sS'specify'
p1642
I4051
sS'11'
p1643
I2814
sS'wide'
p1644
I4052
sS'13'
p1645
I2816
sS'12'
p1646
I2817
sS'15'
p1647
I2818
sS'unfortunately'
p1648
I4053
sS'17'
p1649
I2820
sS'16'
p1650
I2821
sS'19'
p1651
I2822
sS'18'
p1652
I2823
sS'require'
p1653
I4054
sS'diplomatic'
p1654
I4055
sS'transferred'
p1655
I1607
sS'spokeswoman'
p1656
I4056
sS'future'
p1657
I423
sS'glossy'
p1658
I424
sS'venture'
p1659
I2824
sS'were'
p1660
I2825
sS'cards'
p1661
I4058
sS'Orkem'
p1662
I1608
sS'subcommittee'
p1663
I1049
sS'and'
p1664
I4059
sS'62.875'
p1665
I2659
sS'Kuehn'
p1666
I2826
sS'Court'
p1667
I2827
sS'armored'
p1668
I4060
sS'investors'
p1669
I1609
sS'remained'
p1670
I1610
sS'NATO'
p1671
I927
sS'premier'
p1672
I1611
sS'turned'
p1673
I425
sS'argument'
p1674
I426
sS'headquarters'
p1675
I427
sS'already'
p1676
I3735
sS'say'
p1677
I428
sS'conspiracy'
p1678
I2828
sS'Inquiry'
p1679
I429
sS'rent'
p1680
I4061
sS'anger'
p1681
I1612
sS'DNA'
p1682
I2660
sS'sells'
p1683
I4062
sS'recover'
p1684
I1613
sS'saw'
p1685
I430
sS'any'
p1686
I4064
sS'sat'
p1687
I431
sS'Do'
p1688
I2832
sS'offering'
p1689
I2661
sS'fashionable'
p1690
I432
sS'veteran'
p1691
I1615
sS'Murphy'
p1692
I2617
sS'ideas'
p1693
I4065
sS'note'
p1694
I434
sS'equipment'
p1695
I1616
sS'ideal'
p1696
I4066
sS'potential'
p1697
I2833
sS'take'
p1698
I435
sS'attempted'
p1699
I3896
sS'performance'
p1700
I2834
sS'Leemans'
p1701
I437
sS'Du'
p1702
I2835
sS'high-technology'
p1703
I438
sS'registered'
p1704
I2031
sS'channel'
p1705
I2836
sS'200'
p1706
I2837
sS'begin'
p1707
I1617
sS'SUNY'
p1708
I1618
sS'multiple'
p1709
I4068
sS'opposite'
p1710
I439
sS'track'
p1711
I2839
sS'price'
p1712
I1619
sS'enter'
p1713
I3704
sS'TV'
p1714
I2931
sS'paid'
p1715
I2841
sS'specialty'
p1716
I2033
sS'Separately'
p1717
I2643
sS'near-term'
p1718
I1068
sS'Gandhi'
p1719
I4069
sS'remarks'
p1720
I441
sS'cleared'
p1721
I4070
sS'inserted'
p1722
I442
sS'GOP'
p1723
I4071
sS'involving'
p1724
I1301
sS'D.'
p1725
I2842
sS'Trust'
p1726
I2843
sS'especially'
p1727
I2844
sS'surprising'
p1728
I2845
sS'failure'
p1729
I2665
sS'considered'
p1730
I4072
sS'average'
p1731
I445
sS'later'
p1732
I3376
sS'Chez'
p1733
I447
sS'hungry'
p1734
I4073
sS'playing'
p1735
I3073
sS'federal'
p1736
I449
sS'stock-market'
p1737
I1986
sS'refining'
p1738
I450
sS'jumped'
p1739
I469
sS'Accounting'
p1740
I2847
sS'senior'
p1741
I4074
sS'50.875'
p1742
I638
sS'typically'
p1743
I1624
sS'filing'
p1744
I1625
sS'laws'
p1745
I452
sS'shop'
p1746
I2848
sS'rating'
p1747
I2849
sS'Northeast'
p1748
I1627
sS'surplus'
p1749
I453
sS'3.75'
p1750
I1628
sS'heredity'
p1751
I4182
sS'allegations'
p1752
I4076
sS'contemporary'
p1753
I2851
sS'Research'
p1754
I4077
sS'discovered'
p1755
I1629
sS'Switzerland'
p1756
I2035
sS'steelmakers'
p1757
I1869
sS'Stephen'
p1758
I2852
sS'Bundesbank'
p1759
I4078
sS'aggressive'
p1760
I455
sS'label'
p1761
I2853
sS'ground'
p1762
I1630
sS'Mikhail'
p1763
I1643
sS'We'
p1764
I2854
sS'upgrade'
p1765
I1631
sS'Worse'
p1766
I1632
sS'Banxquote'
p1767
I625
sS'title'
p1768
I1633
sS'Kansas'
p1769
I1634
sS'Berlin'
p1770
I1644
sS'crime'
p1771
I4081
sS'only'
p1772
I1635
sS'going'
p1773
I458
sS'black'
p1774
I2856
sS'Sox'
p1775
I785
sS'Services'
p1776
I2857
sS'Housing'
p1777
I459
sS'congressional'
p1778
I460
sS'dispute'
p1779
I461
sS'ranking'
p1780
I2858
sS'over'
p1781
I3705
sS'non-invasive'
p1782
I2153
sS'stay'
p1783
I2373
sS'get'
p1784
I2859
sS'contracts'
p1785
I2860
sS'assistant'
p1786
I462
sS'jazz'
p1787
I4083
sS'RISC'
p1788
I2861
sS'employers'
p1789
I2862
sS'affecting'
p1790
I472
sS'hailed'
p1791
I2864
sS'nearly'
p1792
I2865
sS'BNL'
p1793
I2866
sS'Richard'
p1794
I2204
sS'recombinant'
p1795
I463
sS'neither'
p1796
I2258
sS'comment'
p1797
I3515
sS'secondary'
p1798
I2867
sS'prime'
p1799
I464
sS'Filipinos'
p1800
I2868
sS'W.'
p1801
I2869
sS'seldom'
p1802
I1637
sS'versions'
p1803
I4084
sS'borrow'
p1804
I465
sS'yield'
p1805
I2870
sS'morning'
p1806
I2871
sS'miles'
p1807
I2872
sS'losers'
p1808
I1638
sS'predicted'
p1809
I4086
sS'forces'
p1810
I1295
sS'At'
p1811
I2062
sS'discussing'
p1812
I4087
sS'administration'
p1813
I1825
sS'declared'
p1814
I2873
sS'concert'
p1815
I1639
sS'encourages'
p1816
I4088
sS'bids'
p1817
I3904
sS'whitewash'
p1818
I418
sS'ends'
p1819
I1055
sS'seat'
p1820
I2875
sS'elected'
p1821
I1641
sS'college'
p1822
I4089
sS'slashing'
p1823
I4090
sS'Neave'
p1824
I2876
sS'Manufacturers'
p1825
I2877
sS'surgery'
p1826
I2831
sS'concern'
p1827
I1642
sS'retire'
p1828
I2535
sS'Church'
p1829
I468
sS'Shopping'
p1830
I4091
sS'Johnson'
p1831
I1647
sS'mortgage'
p1832
I4092
sS'That'
p1833
I2846
sS'ways'
p1834
I3590
sS'subsequent'
p1835
I4095
sS'review'
p1836
I4096
sS'representatives'
p1837
I470
sS'repeal'
p1838
I1151
sS'forecast'
p1839
I2881
sS'weapons'
p1840
I4098
sS'single-A-3'
p1841
I1056
sS'outside'
p1842
I4099
sS'Mather'
p1843
I471
sS'Members'
p1844
I1645
sS'between'
p1845
I1646
sS'Baja'
p1846
I2863
sS'cautiously'
p1847
I2036
sS'Mitsubishi'
p1848
I473
sS'across'
p1849
I2883
sS'toying'
p1850
I4100
sS'gives'
p1851
I4044
sS'infrastructure'
p1852
I2884
sS'jobs'
p1853
I474
sS'FOR'
p1854
I2880
sS'U.S.'
p1855
I4101
sS'apiece'
p1856
I853
sS'26'
p1857
I3079
sS'rapidly'
p1858
I646
sS'Securities'
p1859
I475
sS'10.2'
p1860
I2461
sS'diners'
p1861
I4102
sS'Each'
p1862
I2886
sS'article'
p1863
I1648
sS'spark'
p1864
I477
sS'cities'
p1865
I4103
sS'come'
p1866
I4104
sS'reaction'
p1867
I4105
sS'dates'
p1868
I2887
sS'acquiring'
p1869
I4106
sS'missions'
p1870
I4107
sS'many'
p1871
I478
sS'trader'
p1872
I2889
sS'trades'
p1873
I2890
sS'according'
p1874
I2891
sS'contract'
p1875
I4109
sS'officer'
p1876
I3868
sS'personal'
p1877
I2462
sS'concentrate'
p1878
I476
sS'Wall'
p1879
I3611
sS'Laboratory'
p1880
I2892
sS'holders'
p1881
I2893
sS'traded'
p1882
I2894
sS'Investment'
p1883
I4111
sS'comes'
p1884
I1652
sS'nearby'
p1885
I1653
sS'affairs'
p1886
I776
sS'provoked'
p1887
I3469
sS'Mortgage'
p1888
I479
sS'passenger'
p1889
I1654
sS'color'
p1890
I4112
sS'Pictures'
p1891
I1655
sS'hybrids'
p1892
I1656
sS'Nekoosa'
p1893
I2267
sS'jeans'
p1894
I1657
sS'promises'
p1895
I4113
sS'pop'
p1896
I519
sS'expectations'
p1897
I3707
sS'60'
p1898
I521
sS'61'
p1899
I4115
sS'maintained'
p1900
I2896
sS'grants'
p1901
I2897
sS'Jahn'
p1902
I4117
sS'learning'
p1903
I1659
sS'67'
p1904
I4369
sS'68'
p1905
I4119
sS'constant'
p1906
I3318
sS'bizarre'
p1907
I525
sS'Horton'
p1908
I480
sS'Leader'
p1909
I1660
sS'considering'
p1910
I2898
sS'sprays'
p1911
I2465
sS'unusual'
p1912
I2899
sS'Calif.'
p1913
I2900
sS'conventional-arms'
p1914
I2223
sS'Electric'
p1915
I4122
sS'P.'
p1916
I1060
sS'recognize'
p1917
I1136
sS'But'
p1918
I4123
sS'coupe'
p1919
I4124
sS'defined'
p1920
I856
sS'Healthcare'
p1921
I1127
sS'Lynch'
p1922
I482
sS'motives'
p1923
I483
sS'Nuclear'
p1924
I2673
sS'technical'
p1925
I763
sS'hardly'
p1926
I4125
sS'estimated'
p1927
I2106
sS'500'
p1928
I4126
sS'disclosed'
p1929
I1833
sS'wants'
p1930
I484
sS'BankAmerica'
p1931
I485
sS'direction'
p1932
I4128
sS'enable'
p1933
I486
sS'shopping'
p1934
I2901
sS'gray'
p1935
I2243
sS'influence'
p1936
I858
sS'offered'
p1937
I2902
sS'formed'
p1938
I487
sS'Deseret'
p1939
I4130
sS'centerpiece'
p1940
I488
sS'dramatic'
p1941
I2903
sS'wake'
p1942
I2904
sS'suspicions'
p1943
I3906
sS'stems'
p1944
I1664
sS'suspected'
p1945
I1665
sS'former'
p1946
I490
sS'those'
p1947
I2905
sS'pilot'
p1948
I4132
sS'paying'
p1949
I581
sS'per-capita'
p1950
I3907
sS'myself'
p1951
I4134
sS'MORTGAGE'
p1952
I491
sS'developing'
p1953
I1666
sS'these'
p1954
I1667
sS'consultant'
p1955
I492
sS'Reagan'
p1956
I1668
sS'cash'
p1957
I4135
sS"n't"
p1958
I2907
sS'Edward'
p1959
I2041
sS'ally'
p1960
I648
sS'policies'
p1961
I494
sS'newspaper'
p1962
I495
sS'Laurel'
p1963
I4136
sS'Order'
p1964
I3549
sS'Moody'
p1965
I1836
sS'sorghum'
p1966
I1669
sS'region'
p1967
I4108
sS'exercisable'
p1968
I1670
sS'operate'
p1969
I2457
sS'managing'
p1970
I4094
sS'conferences'
p1971
I2910
sS'eventually'
p1972
I2911
sS'soil'
p1973
I1671
sS'Democratic'
p1974
I1000
sS'health-care'
p1975
I1672
sS'engaged'
p1976
I497
sS'coffee'
p1977
I2912
sS'Peters'
p1978
I3045
sS'refinery'
p1979
I4138
sS'increased'
p1980
I1090
sS'evening'
p1981
I1837
sS'drug'
p1982
I1063
sS'Bar'
p1983
I3089
sS'13.5'
p1984
I498
sS'technology'
p1985
I499
sS'worry'
p1986
I1673
sS'13.1'
p1987
I500
sS'bags'
p1988
I2913
sS'par'
p1989
I4505
sS'dragging'
p1990
I501
sS'develop'
p1991
I1675
sS'handled'
p1992
I3971
sS'media'
p1993
I1676
sS'granted'
p1994
I4139
sS'negotiating'
p1995
I3752
sS'same'
p1996
I2916
sS'check'
p1997
I4140
sS'Freddie'
p1998
I502
sS'inquiry'
p1999
I1677
sS'550,000'
p2000
I503
sS'When'
p2001
I2736
sS'a.m.'
p2002
I2275
sS'cotton'
p2003
I2042
sS'bring'
p2004
I1024
sS'events'
p2005
I4142
sS'status'
p2006
I654
sS'oil'
p2007
I2918
sS'edged'
p2008
I504
sS'Salvador'
p2009
I2919
sS'abandoned'
p2010
I4256
sS'I'
p2011
I505
sS'boosted'
p2012
I506
sS'refusal'
p2013
I4145
sS'Toyota'
p2014
I664
sS'Rockefeller'
p2015
I4146
sS'companion'
p2016
I2920
sS'producers'
p2017
I4147
sS'statutory'
p2018
I671
sS'driven'
p2019
I668
sS'delicate'
p2020
I4149
sS'intended'
p2021
I631
sS'Banks'
p2022
I4150
sS'climbing'
p2023
I2923
sS'totally'
p2024
I2924
sS'complained'
p2025
I1679
sS'drain'
p2026
I2925
sS'ballooning'
p2027
I2704
sS'academics'
p2028
I2471
sS'charges'
p2029
I1680
sS'sales'
p2030
I1745
sS'Renk'
p2031
I2927
sS'no'
p2032
I3910
sS'Motors'
p2033
I2928
sS'roughly'
p2034
I2929
sS'mortgages'
p2035
I2930
sS'Rep.'
p2036
I1682
sS'severe'
p2037
I1683
sS'costs'
p2038
I508
sS'relief'
p2039
I4155
sS'components'
p2040
I4156
sS'In'
p2041
I4157
sS'researchers'
p2042
I4158
sS'If'
p2043
I4159
sS'summer'
p2044
I509
sS'Ruffo'
p2045
I2679
sS'Service'
p2046
I1685
sS'among'
p2047
I2895
sS'Ways'
p2048
I2933
sS'formula'
p2049
I396
sS'adjustments'
p2050
I2935
sS'superconductors'
p2051
I1686
sS'Minn.'
p2052
I1687
sS'Pine'
p2053
I4161
sS'Conservative'
p2054
I3191
sS'communities'
p2055
I4309
sS'violent'
p2056
I4162
sS'kill'
p2057
I4163
sS'So'
p2058
I1802
sS'touch'
p2059
I1690
sS'Markets'
p2060
I513
sS'Sterling'
p2061
I1692
sS'announcement'
p2062
I4165
sS'renewed'
p2063
I1693
sS'thinking'
p2064
I1694
sS'tourism'
p2065
I3712
sS'seems'
p2066
I4167
sS'politicians'
p2067
I2046
sS'Weekes'
p2068
I2936
sS'nominees'
p2069
I1053
sS'1.8200'
p2070
I4168
sS'setting'
p2071
I3913
sS'bloc'
p2072
I4169
sS'treatment'
p2073
I1695
sS'Although'
p2074
I2938
sS'Wash.'
p2075
I2047
sS'struck'
p2076
I756
sS'disrupt'
p2077
I4170
sS'pill'
p2078
I2939
sS'real'
p2079
I1697
sS'drink'
p2080
I1075
sS'aspects'
p2081
I514
sS'around'
p2082
I515
sS'last'
p2083
I737
sS'read'
p2084
I772
sS'Many'
p2085
I4174
sS'papers'
p2086
I3915
sS'period'
p2087
I517
sS'Project'
p2088
I782
sS'inflation'
p2089
I4177
sS'traffic'
p2090
I518
sS'pages'
p2091
I443
sS'listening'
p2092
I1700
sS'credentials'
p2093
I2940
sS'railroad'
p2094
I2941
sS'execution'
p2095
I1702
sS'disappointed'
p2096
I2942
sS'U.N.'
p2097
I4179
sS'furniture'
p2098
I4180
sS'Shop'
p2099
I1705
sS'standstill'
p2100
I803
sS'pounds'
p2101
I1706
sS'62'
p2102
I4116
sS'serves'
p2103
I2943
sS'subordinated'
p2104
I387
sS'annually'
p2105
I1707
sS'chamber'
p2106
I2945
sS'benefit'
p2107
I1708
sS'superiority'
p2108
I522
sS'either'
p2109
I2948
sS'retailers'
p2110
I2949
sS'Suns'
p2111
I1709
sS'output'
p2112
I1710
sS'downward'
p2113
I1046
sS'reduced'
p2114
I4183
sS'insured'
p2115
I2221
sS'65'
p2116
I523
sS'Jewelry'
p2117
I2951
sS'Entertainment'
p2118
I2952
sS'West'
p2119
I1135
sS'Since'
p2120
I4185
sS'draw'
p2121
I2049
sS'Mark'
p2122
I1712
sS'depressed'
p2123
I421
sS'Kimberly-Clark'
p2124
I2699
sS'images'
p2125
I2954
sS'New'
p2126
I2955
sS'Net'
p2127
I2956
sS'intact'
p2128
I861
sS'matching'
p2129
I2957
sS'Vienna'
p2130
I526
sS'gross'
p2131
I2958
sS'swaps'
p2132
I865
sS'two-year'
p2133
I4120
sS'tube'
p2134
I3340
sS'Earlier'
p2135
I1713
sS'recorded'
p2136
I1714
sS'legal'
p2137
I4189
sS'QVC'
p2138
I877
sS'toad'
p2139
I3919
sS'dealership'
p2140
I1716
sS'On'
p2141
I2239
sS'deficit'
p2142
I1717
sS'provides'
p2143
I4190
sS'provider'
p2144
I4191
sS'affiliate'
p2145
I3716
sS'moderate'
p2146
I1883
sS'Projects'
p2147
I527
sS'Chapter'
p2148
I2960
sS'specializing'
p2149
I2961
sS'felt'
p2150
I2682
sS'assembly'
p2151
I1719
sS'scientific'
p2152
I528
sS'power'
p2153
I529
sS'retains'
p2154
I530
sS'equivalent'
p2155
I901
sS'broker'
p2156
I2964
sS'notably'
p2157
I2965
sS'meets'
p2158
I2603
sS'leadership'
p2159
I531
sS'found'
p2160
I652
sS'containerboard'
p2161
I1721
sS'exciting'
p2162
I1722
sS'7.96'
p2163
I1245
sS'released'
p2164
I4049
sS'executives'
p2165
I532
sS'Goya'
p2166
I4192
sS'on'
p2167
I4193
sS'conducting'
p2168
I2967
sS'central'
p2169
I1723
sS'S.A.'
p2170
I1724
sS'Revenue'
p2171
I2968
sS'of'
p2172
I4194
sS'industry'
p2173
I533
sS'favorite'
p2174
I534
sS'drag'
p2175
I2053
sS'side'
p2176
I2481
sS'fell'
p2177
I2683
sS'stand'
p2178
I4196
sS'Chevron'
p2179
I1725
sS'act'
p2180
I535
sS'mixed'
p2181
I2972
sS'bond'
p2182
I2482
sS'or'
p2183
I4197
sS'road'
p2184
I2973
sS'tape'
p2185
I1031
sS'Information'
p2186
I2203
sS'8.50'
p2187
I1727
sS'outlook'
p2188
I956
sS'8.55'
p2189
I959
sS'No'
p2190
I537
sS'coupon'
p2191
I2974
sS'instruments'
p2192
I4198
sS'image'
p2193
I538
sS'signing'
p2194
I3720
sS'authorities'
p2195
I2684
sS'involvement'
p2196
I1729
sS'determine'
p2197
I972
sS'operator'
p2198
I1730
sS'valuable'
p2199
I1688
sS'your'
p2200
I1731
sS'Lease'
p2201
I539
sS'fast'
p2202
I2804
sS'Moon'
p2203
I3008
sS'her'
p2204
I540
sS'Though'
p2205
I2976
sS'strictly'
p2206
I4202
sS'there'
p2207
I4203
sS'styling'
p2208
I2977
sS'strict'
p2209
I4205
sS'Infiniti'
p2210
I4206
sS'low'
p2211
I1735
sS'sealed'
p2212
I541
sS'alleges'
p2213
I4207
sS'fastball'
p2214
I1003
sS'combined'
p2215
I2978
sS'revamped'
p2216
I2055
sS'complete'
p2217
I543
sS'enough'
p2218
I2882
sS'signs'
p2219
I643
sS'Vosges'
p2220
I545
sS'pleased'
p2221
I4655
sS'delayed'
p2222
I1737
sS'principles'
p2223
I2483
sS'brain'
p2224
I4665
sS'Broberg'
p2225
I4294
sS'elimination'
p2226
I547
sS'technologies'
p2227
I548
sS'trying'
p2228
I1738
sS'with'
p2229
I549
sS','
p2230
I2464
sS'buying'
p2231
I550
sS'pull'
p2232
I551
sS'hire'
p2233
I1739
sS'fraud'
p2234
I1740
sS'arranged'
p2235
I2982
sS'co-chief'
p2236
I2983
sS'default'
p2237
I1041
sS'House'
p2238
I552
sS'5/8'
p2239
I1741
sS'Bull'
p2240
I2333
sS'Plant'
p2241
I2914
sS'Marston'
p2242
I1742
sS'Eddie'
p2243
I2984
sS'politically'
p2244
I553
sS'advantage'
p2245
I3938
sS'agree'
p2246
I554
sS'detailed'
p2247
I555
sS'gone'
p2248
I556
sS'required'
p2249
I2058
sS'Guber'
p2250
I2981
sS'ad'
p2251
I557
sS'Alamos'
p2252
I2985
sS'totaling'
p2253
I4213
sS'moved'
p2254
I1744
sS'Airlines'
p2255
I560
sS'watches'
p2256
I561
sS'an'
p2257
I562
sS'alarm'
p2258
I854
sS'as'
p2259
I563
sS'Moonies'
p2260
I3522
sS'daily'
p2261
I2688
sS'file'
p2262
I2990
sS'advertisers'
p2263
I657
sS'99.1875'
p2264
I4214
sS'politics'
p2265
I4215
sS'himself'
p2266
I2030
sS'moves'
p2267
I1746
sS'operation'
p2268
I658
sS'fill'
p2269
I2991
sS'4.5'
p2270
I4217
sS'again'
p2271
I2992
sS'4.7'
p2272
I1077
sS'Jake'
p2273
I1748
sS'receive'
p2274
I908
sS'4.3'
p2275
I4220
sS'4.2'
p2276
I4221
sS'personnel'
p2277
I2993
sS'hybrid'
p2278
I2994
sS'Second'
p2279
I2689
sS'abolish'
p2280
I567
sS'field'
p2281
I2996
sS'narrowing'
p2282
I4223
sS'KGB'
p2283
I2027
sS'Atlantic'
p2284
I568
sS'Drilling'
p2285
I2997
sS'rioting'
p2286
I1072
sS'Stamford'
p2287
I871
sS'you'
p2288
I1749
sS'Law'
p2289
I1093
sS'Johnstown'
p2290
I4227
sS'poor'
p2291
I1751
sS'Great'
p2292
I1752
sS'blessing'
p2293
I4129
sS'Alex'
p2294
I569
sS'separate'
p2295
I4229
sS'12.4'
p2296
I2874
sS'Employees'
p2297
I3578
sS'Paramount'
p2298
I3064
sS'reached'
p2299
I570
sS'attributed'
p2300
I3513
sS'includes'
p2301
I4230
sS'8.04'
p2302
I3768
sS'important'
p2303
I2999
sS'accounts'
p2304
I971
sS'brands'
p2305
I3000
sS'creditor'
p2306
I2922
sS'stocks'
p2307
I4234
sS'fiscal'
p2308
I1124
sS'observers'
p2309
I1663
sS'Major'
p2310
I3002
sS'US$'
p2311
I3003
sS'Mexican'
p2312
I1755
sS'arsenals'
p2313
I4235
sS'calls'
p2314
I4236
sS'refinanced'
p2315
I4237
sS'Tropics'
p2316
I1756
sS'tricks'
p2317
I572
sS'principal'
p2318
I1028
sS'posts'
p2319
I3942
sS'directors'
p2320
I4239
sS'Street'
p2321
I573
sS'Year'
p2322
I3005
sS'overseas'
p2323
I1757
sS'Warsaw'
p2324
I2067
sS'neurosurgeon'
p2325
I2830
sS'wastewater'
p2326
I574
sS'Analysts'
p2327
I489
sS'Canada'
p2328
I1332
sS'all'
p2329
I1161
sS'since'
p2330
I1857
sS'9/16'
p2331
I3633
sS'founder'
p2332
I3006
sS'caused'
p2333
I577
sS'Workers'
p2334
I3153
sS'CDs'
p2335
I4697
sS'dollar'
p2336
I3007
sS'month'
p2337
I1758
sS'founded'
p2338
I3009
sS'balloon'
p2339
I2292
sS'deadline'
p2340
I1759
sS'Take'
p2341
I1760
sS'cooperative'
p2342
I3010
sS'talks'
p2343
I3011
sS'follow'
p2344
I4240
sS'settlement'
p2345
I4241
sS'decisions'
p2346
I4242
sS'reluctant'
p2347
I3012
sS'William'
p2348
I3013
sS'number'
p2349
I675
sS'referring'
p2350
I1763
sS'jewelry'
p2351
I292
sS'opportunities'
p2352
I4244
sS'Trade'
p2353
I2969
sS'insects'
p2354
I3032
sS'to'
p2355
I580
sS'program'
p2356
I4245
sS'dairy'
p2357
I4246
sS'14'
p2358
I2819
sS'safety'
p2359
I1859
sS'lawmakers'
p2360
I4247
sS'PRIME'
p2361
I3014
sS'activities'
p2362
I4248
sS'global'
p2363
I1468
sS'premium'
p2364
I3015
sS'song'
p2365
I4250
sS'very'
p2366
I1765
sS'Alaska'
p2367
I4252
sS'induce'
p2368
I1775
sS'results'
p2369
I874
sS'Erwin'
p2370
I4254
sS'blockade'
p2371
I582
sS'worst'
p2372
I4255
sS'decide'
p2373
I1767
sS'got'
p2374
I3726
sS'existing'
p2375
I875
sS'condition'
p2376
I1137
sS'Cockburn'
p2377
I583
sS'delivery'
p2378
I1125
sS'`'
p2379
I3711
sS'unlike'
p2380
I4702
sS'cable'
p2381
I584
sS'--'
p2382
I1768
sS'grand-jury'
p2383
I3017
sS'list'
p2384
I4257
sS'joined'
p2385
I585
sS'large'
p2386
I586
sS'small'
p2387
I587
sS'economically'
p2388
I3018
sS'Seidman'
p2389
I1769
sS'3.18'
p2390
I1770
sS'owned'
p2391
I990
sS'triple-A'
p2392
I4209
sS'Nomura'
p2393
I588
sS'300ZX'
p2394
I2285
sS'penalties'
p2395
I3746
sS'193'
p2396
I589
sS'past'
p2397
I590
sS'go'
p2398
I2070
sS'Only'
p2399
I3019
sS'design'
p2400
I4259
sS'lawyer'
p2401
I3020
sS'pass'
p2402
I591
sS'further'
p2403
I3760
sS'East'
p2404
I4261
sS'investment'
p2405
I592
sS'10.48'
p2406
I3021
sS'HUD'
p2407
I1771
sS'will'
p2408
I4704
sS'what'
p2409
I4262
sS'Korea'
p2410
I1772
sS'stood'
p2411
I3022
sS'consumers'
p2412
I1773
sS'indicated'
p2413
I1206
sS'investing'
p2414
I1307
sS'deeply'
p2415
I1308
sS'Elanco'
p2416
I1774
sS'judiciary'
p2417
I3565
sS'version'
p2418
I4263
sS'scientists'
p2419
I594
sS'certificates'
p2420
I1776
sS'learned'
p2421
I1777
sS'seemed'
p2422
I879
sS'public'
p2423
I3023
sS'contrast'
p2424
I596
sS'movement'
p2425
I3024
sS'turmoil'
p2426
I1778
sS'full'
p2427
I597
sS'estate'
p2428
I3688
sS'ranged'
p2429
I3025
sS'Alltel'
p2430
I1779
sS'Finland'
p2431
I598
sS'component'
p2432
I3026
sS'fueling'
p2433
I3186
sS'answers'
p2434
I1780
sS'prepayment'
p2435
I4293
sS'hours'
p2436
I599
sS'Arthur'
p2437
I3027
sS'anticipation'
p2438
I2696
sS'operating'
p2439
I3028
sS'situation'
p2440
I496
sS'Nahas'
p2441
I1783
sS'soon'
p2442
I1826
sS'buy'
p2443
I3605
sS'ascending'
p2444
I2494
sS'Spencer'
p2445
I4602
sS'thrift'
p2446
I4264
sS'Borden'
p2447
I1785
sS'sensory'
p2448
I109
sS'900'
p2449
I3029
sS'prosecutors'
p2450
I3030
sS'naval'
p2451
I4265
sS'ahead'
p2452
I1786
sS'extraordinary'
p2453
I3114
sS'else'
p2454
I1952
sS'margin'
p2455
I2909
sS'inspired'
p2456
I1787
sS'losses'
p2457
I1788
sS'allows'
p2458
I4266
sS'qualify'
p2459
I666
sS'Dole'
p2460
I1789
sS'Any'
p2461
I2287
sS'prior'
p2462
I601
sS'Keenan'
p2463
I3828
sS'Cranston-Mitchell'
p2464
I4267
sS'advertising'
p2465
I1382
sS'published'
p2466
I3031
sS'action'
p2467
I603
sS'narrow'
p2468
I3837
sS'options'
p2469
I4268
sS'point'
p2470
I3216
sS'sticking'
p2471
I4269
sS'arms-control'
p2472
I4270
sS'via'
p2473
I604
sS'followed'
p2474
I2786
sS'family'
p2475
I1791
sS'<root>'
p2476
I2
sS'Stanza'
p2477
I2986
sS'enactment'
p2478
I3850
sS'10,000'
p2479
I2439
sS'put'
p2480
I985
sS'aimed'
p2481
I1792
sS'trained'
p2482
I1793
sS'Standard'
p2483
I3933
sS'establish'
p2484
I3033
sS'select'
p2485
I605
sS'Europe'
p2486
I3034
sS'shareholders'
p2487
I3035
sS'wanted'
p2488
I3732
sS'eye'
p2489
I3036
sS'takes'
p2490
I1795
sS'presence'
p2491
I3889
sS'Hewlett-Packard'
p2492
I606
sS'Egg'
p2493
I607
sS'one-day'
p2494
I1796
sS'acrimony'
p2495
I1540
sS'two'
p2496
I3037
sS'N.J.'
p2497
I2424
sS'Investments'
p2498
I1870
sS'Corp'
p2499
I3038
sS'Kirgizia'
p2500
I1797
sS'familiar'
p2501
I1036
sS'libel'
p2502
I3039
sS'taken'
p2503
I1798
sS'promoting'
p2504
I3936
sS'markets'
p2505
I4271
sS'Conlon'
p2506
I610
sS'minor'
p2507
I4272
sS'more'
p2508
I611
sS'Manville'
p2509
I4273
sS'lowering'
p2510
I1800
sS'door'
p2511
I613
sS'LTV'
p2512
I3040
sS'tobacco'
p2513
I2245
sS'Kennedy'
p2514
I3041
sS'FEDERAL'
p2515
I3042
sS'division'
p2516
I1475
sS'Philippines'
p2517
I3916
sS'LaFalce'
p2518
I615
sS'telephone'
p2519
I4137
sS'Banking'
p2520
I1462
sS'American'
p2521
I3922
sS'controlling'
p2522
I3043
sS'stick'
p2523
I4277
sS'broke'
p2524
I1803
sS'particular'
p2525
I3044
sS'known'
p2526
I1469
sS'retained'
p2527
I670
sS'mellow'
p2528
I4279
sS'factories'
p2529
I1804
sS'producing'
p2530
I1473
sS'town'
p2531
I3046
sS'none'
p2532
I3047
sS'Now'
p2533
I2073
sS'hour'
p2534
I3048
sS'faced'
p2535
I3800
sS'Zell'
p2536
I4280
sS'other'
p2537
I4735
sS'remain'
p2538
I3049
sS'del'
p2539
I3050
sS'budgets'
p2540
I1806
sS'forward-rate'
p2541
I4281
sS'pioneered'
p2542
I3959
sS'strategies'
p2543
I3052
sS'male'
p2544
I619
sS'Berthold'
p2545
I2499
sS'Inc'
p2546
I4282
sS'Conference'
p2547
I620
sS'purchases'
p2548
I3053
sS'Retirement'
p2549
I3054
sS'prompt'
p2550
I621
sS'Yale'
p2551
I2757
sS'adviser'
p2552
I1808
sS'lives'
p2553
I1953
sS'Ariz.'
p2554
I2290
sS'share'
p2555
I3055
sS'accept'
p2556
I623
sS'states'
p2557
I624
sS'pushed'
p2558
I1809
sS'Lyphomed'
p2559
I4283
sS'way'
p2560
I4047
sS'protects'
p2561
I4284
sS'purchased'
p2562
I3058
sS'sense'
p2563
I626
sS'sharp'
p2564
I3059
sS'Calif'
p2565
I3060
sS'chores'
p2566
I4285
sS'maturing'
p2567
I3062
sS'needs'
p2568
I3063
sS'Parliament'
p2569
I4286
sS'5.4'
p2570
I4287
sS'Raymond'
p2571
I3065
sS'rather'
p2572
I4288
sS'plans'
p2573
I4013
sS'breaking'
p2574
I4289
sS'United'
p2575
I4160
sS'surpassed'
p2576
I1811
sS'Sales'
p2577
I4425
sS'stemming'
p2578
I4291
sS'earnings'
p2579
I628
sS'speeding'
p2580
I4292
sS'businessmen'
p2581
I1873
sS'Hanover'
p2582
I629
sS'Television'
p2583
I1563
sS'tried'
p2584
I1568
sS'Schneider'
p2585
I4020
sS'minimum'
p2586
I3057
sS'different'
p2587
I3069
sS'Foreign'
p2588
I4295
sS'reflect'
p2589
I4296
sS'retirement'
p2590
I1981
sS'tries'
p2591
I1813
sS'Nebraska'
p2592
I3070
sS'coming'
p2593
I3071
sS'Swiss'
p2594
I634
sS'response'
p2595
I3835
sS'nonetheless'
p2596
I1141
sS'a'
p2597
I1815
sS'changes'
p2598
I3667
sS'short'
p2599
I4298
sS'Mexico'
p2600
I1817
sS'overnight'
p2601
I1818
sS'Deep'
p2602
I1819
sS'Haag'
p2603
I3123
sS'renewing'
p2604
I1820
sS'broadcasting'
p2605
I636
sS'ego'
p2606
I1821
sS'Democrats'
p2607
I4300
sS'fundamental'
p2608
I637
sS'pay'
p2609
I2915
sS'banks'
p2610
I1822
sS'lasting'
p2611
I3719
sS'dream'
p2612
I1620
sS'privileges'
p2613
I4712
sS'turnover'
p2614
I4302
sS'greats'
p2615
I639
sS'What'
p2616
I3074
sS'help'
p2617
I1824
sS'developed'
p2618
I4303
sS'Nikko'
p2619
I4304
sS'trade'
p2620
I640
sS'held'
p2621
I1827
sS'attitude'
p2622
I641
sS'paper'
p2623
I642
sS'through'
p2624
I3075
sS'committee'
p2625
I1828
sS'committed'
p2626
I1640
sS'documents'
p2627
I1011
sS'clarinet'
p2628
I1829
sS'Edelman'
p2629
I644
sS'agrees'
p2630
I2353
sS'trouble'
p2631
I1480
sS'Texas'
p2632
I3076
sS'24'
p2633
I3077
sS'25'
p2634
I3078
sS'style'
p2635
I4305
sS'27'
p2636
I3080
sS'20'
p2637
I3081
sS'21'
p2638
I3082
sS'22'
p2639
I3083
sS'23'
p2640
I3084
sS'Fiat'
p2641
I3185
sS'sale'
p2642
I2677
sS'28'
p2643
I3085
sS'29'
p2644
I3086
sS'actually'
p2645
I1831
sS'late'
p2646
I4121
sS'Phelan'
p2647
I1832
sS'Marietta'
p2648
I3087
sS'systems'
p2649
I1662
sS'annual'
p2650
I3212
sS'peanuts'
p2651
I1834
sS'Brussels'
p2652
I647
sS'might'
p2653
I4307
sS'lire'
p2654
I1835
sS'arguments'
p2655
I2917
sS'tentatively'
p2656
I649
sS'good'
p2657
I3088
sS'return'
p2658
I4308
sS'seeking'
p2659
I3090
sS'food'
p2660
I1838
sS'delivered'
p2661
I2005
sS'Michael'
p2662
I650
sS'Bay'
p2663
I3091
sS'resigned'
p2664
I1839
sS'anticipates'
p2665
I1841
sS'formulating'
p2666
I3092
sS'Senior'
p2667
I1842
sS'hearing'
p2668
I3738
sS'complain'
p2669
I3093
sS'bigger'
p2670
I4310
sS'Amendment'
p2671
I4173
sS'easily'
p2672
I3095
sS'stopper'
p2673
I1844
sS'stated'
p2674
I622
sS'Investors'
p2675
I2079
sS'adjacent'
p2676
I3693
sS'occasions'
p2677
I1845
sS'Greene'
p2678
I2409
sS'Telephone'
p2679
I4311
sS'someone'
p2680
I4290
sS'habits'
p2681
I3096
sS'stopped'
p2682
I1848
sS'Council'
p2683
I1849
sS'letting'
p2684
I178
sS'McDonnell'
p2685
I3097
sS'repeating'
p2686
I3098
sS'SFE'
p2687
I1850
sS'characterized'
p2688
I4312
sS'investigators'
p2689
I653
sS'heavy'
p2690
I1852
sS'week'
p2691
I4143
sS'harm'
p2692
I3099
sS'everyone'
p2693
I3100
sS'fail'
p2694
I171
sS'Marcus'
p2695
I3543
sS'generation'
p2696
I4313
sS'house'
p2697
I3101
sS'energy'
p2698
I3102
sS'hard'
p2699
I3103
sS'reduce'
p2700
I655
sS'idea'
p2701
I3104
sS'slowdown'
p2702
I656
sS'high-production'
p2703
I4144
sS'expect'
p2704
I4314
sS'seniority'
p2705
I3105
sS'Panisse'
p2706
I4216
sS'standards'
p2707
I3943
sS'event'
p2708
I1854
sS'really'
p2709
I659
sS'leave'
p2710
I311
sS'initiatives'
p2711
I3107
sS'uninvited'
p2712
I73
sS'funding'
p2713
I4233
sS'item'
p2714
I2714
sS'walked'
p2715
I870
sS'blue-chip'
p2716
I1856
sS'Samuel'
p2717
I4316
sS'temporary'
p2718
I1972
sS'projected'
p2719
I3109
sS'research'
p2720
I660
sS'1.75'
p2721
I3110
sS'participants'
p2722
I4243
sS'health'
p2723
I4317
sS'longtime'
p2724
I3111
sS'7'
p2725
I1860
sS'Prudential-Bache'
p2726
I1861
sS'flashes'
p2727
I4685
sS'1.78'
p2728
I3112
sS'Class'
p2729
I661
sS'cost-cutting'
p2730
I4318
sS'IRS'
p2731
I507
sS'disobedience'
p2732
I3113
sS'belief'
p2733
I662
sS'risen'
p2734
I663
sS'grand'
p2735
I1969
sS'upon'
p2736
I1076
sS'Plaza'
p2737
I1863
sS'According'
p2738
I1864
sS'depository'
p2739
I313
sS'reason'
p2740
I1866
sS'base'
p2741
I1867
sS'imperial'
p2742
I2350
sS'members'
p2743
I3115
sS'ask'
p2744
I1868
sS'heads'
p2745
I677
sS'rises'
p2746
I667
sS'beginning'
p2747
I3117
sS'generate'
p2748
I4321
sS'Researchers'
p2749
I1871
sS'director'
p2750
I633
sS'owners'
p2751
I669
sS'benefits'
p2752
I4278
sS'Congress'
p2753
I3740
sS'People'
p2754
I4322
sS'seasonal'
p2755
I3777
sS'Boston'
p2756
I1872
sS'computers'
p2757
I3119
sS'first-half'
p2758
I4148
sS'Debate'
p2759
I3945
sS'called'
p2760
I4506
sS'PAPER'
p2761
I3120
sS'Expect'
p2762
I4323
sS'threat'
p2763
I1812
sS'scheduled'
p2764
I4172
sS'Lexus'
p2765
I1814
sS'pilots'
p2766
I1467
sS'top'
p2767
I3741
sS'feed'
p2768
I4324
sS'Turkey'
p2769
I3353
sS'embraces'
p2770
I1649
sS'amounted'
p2771
I2651
sS'slipped'
p2772
I673
sS'feel'
p2773
I4325
sS'mistakenly'
p2774
I3124
sS'reflected'
p2775
I1874
sS'fancy'
p2776
I1840
sS'whom'
p2777
I4417
sS'well-known'
p2778
I1843
sS'unexpected'
p2779
I2716
sS'done'
p2780
I3125
sS'airborne'
p2781
I1876
sS'changing'
p2782
I4151
sS'slower'
p2783
I4328
sS'wages'
p2784
I3126
sS'speedometer'
p2785
I4329
sS'contended'
p2786
I676
sS'passes'
p2787
I4330
sS'horse'
p2788
I1875
sS'Transportation'
p2789
I4320
sS'Medco'
p2790
I3128
sS'become'
p2791
I1094
sS'leading'
p2792
I4332
sS'WPP'
p2793
I3129
sS'least'
p2794
I3130
sS'lobby'
p2795
I4720
sS'180'
p2796
I3131
sS'station'
p2797
I1877
sS'difficulties'
p2798
I3505
sS'passed'
p2799
I4334
sS'dealing'
p2800
I2717
sS'Belgium'
p2801
I3133
sS'Matthews'
p2802
I4336
sS'188'
p2803
I3135
sS'hundred'
p2804
I1879
sS'southern'
p2805
I4615
sS'voted'
p2806
I1168
sS'store'
p2807
I1885
sS'too'
p2808
I3744
sS'figures'
p2809
I1064
sS'noted'
p2810
I4536
sS'selling'
p2811
I1880
sS'statement'
p2812
I3132
sS'relationship'
p2813
I679
sS'behind'
p2814
I2855
sS'Delta'
p2815
I1878
sS'appreciation'
p2816
I680
sS'part'
p2817
I3138
sS'demonstrations'
p2818
I1703
sS'doctors'
p2819
I3140
sS'bonds'
p2820
I1035
sS'believe'
p2821
I3141
sS'convinced'
p2822
I4337
sS'percentage'
p2823
I3745
sS'869'
p2824
I3142
sS'king'
p2825
I4338
sS'kind'
p2826
I4339
sS'scheme'
p2827
I1882
sS'double'
p2828
I4340
sS'largely'
p2829
I2926
sS'finances'
p2830
I4335
sS'youth'
p2831
I3143
sS'determined'
p2832
I683
sS'marriage'
p2833
I684
sS'supposed'
p2834
I3144
sS'toward'
p2835
I1887
sS'ousted'
p2836
I1888
sS'Is'
p2837
I4152
sS'subsidies'
p2838
I1889
sS'procedural'
p2839
I1890
sS'normal'
p2840
I2838
sS'obstacles'
p2841
I4342
sS'businesslike'
p2842
I3146
sS'strengthen'
p2843
I4344
sS'constitutional'
p2844
I1681
sS'Peace'
p2845
I1892
sS'ceiling'
p2846
I3748
sS'Douglas'
p2847
I1893
sS'It'
p2848
I4153
sS'licenses'
p2849
I894
sS'substantial'
p2850
I1894
sS'Achenbaum'
p2851
I686
sS'Fortney'
p2852
I1895
sS'Equity'
p2853
I687
sS'Posted'
p2854
I3542
sS'Industrial'
p2855
I2357
sS'organs'
p2856
I1896
sS'orders'
p2857
I3147
sS'vulnerable'
p2858
I1968
sS'option'
p2859
I1160
sS'sell'
p2860
I688
sS'thought'
p2861
I3552
sS'collateralized'
p2862
I3148
sS'20,000'
p2863
I2176
sS'built'
p2864
I3149
sS'evasion'
p2865
I1897
sS'something'
p2866
I4577
sS'trip'
p2867
I3908
sS'Cos.'
p2868
I4459
sS'Price'
p2869
I1899
sS'officers'
p2870
I1900
sS'client'
p2871
I1392
sS'Scientists'
p2872
I3594
sS'also'
p2873
I689
sS'appellate'
p2874
I3154
sS'Drexel'
p2875
I1988
sS'build'
p2876
I3155
sS'Kim'
p2877
I3156
sS'finding'
p2878
I4348
sS'restrictions'
p2879
I1061
sS'With'
p2880
I1901
sS'Germans'
p2881
I4349
sS'seized'
p2882
I691
sS'play'
p2883
I692
sS'added'
p2884
I4350
sS'critics'
p2885
I2172
sS'semiannual'
p2886
I1846
sS'eggs'
p2887
I3158
sS'measures'
p2888
I4351
sS'reach'
p2889
I4352
sS'Hawaii'
p2890
I3159
sS'me'
p2891
I3683
sS'76'
p2892
I4353
sS'75'
p2893
I4354
sS'hired'
p2894
I1902
sS'shareholder'
p2895
I4355
sS'plan'
p2896
I693
sS'significant'
p2897
I3162
sS'70'
p2898
I4357
sS'nothing'
p2899
I4358
sS'The'
p2900
I1904
sS'Petroleos'
p2901
I694
sS'approved'
p2902
I1905
sS'soared'
p2903
I4360
sS'stands'
p2904
I3955
sS'Mehl'
p2905
I4362
sS'dealers'
p2906
I4363
sS'sizable'
p2907
I3137
sS'Institutional'
p2908
I1907
sS'performances'
p2909
I1908
sS'45-year-old'
p2910
I4364
sS'sometimes'
p2911
I695
sS'cover'
p2912
I696
sS'shortly'
p2913
I3838
sS'drawing'
p2914
I1083
sS'traditional'
p2915
I4365
sS'charitable'
p2916
I3167
sS'three-month'
p2917
I697
sS'Lambert'
p2918
I3813
sS'1/2'
p2919
I444
sS'British'
p2920
I2139
sS'justify'
p2921
I698
sS'Robinson'
p2922
I3168
sS'institutions'
p2923
I4366
sS'favorable'
p2924
I3139
sS'sector'
p2925
I3170
sS'stalked'
p2926
I1911
sS'66'
p2927
I4118
sS'golf'
p2928
I700
sS'rebels'
p2929
I3172
sS'gold'
p2930
I701
sS'Norris'
p2931
I1912
sS'obligations'
p2932
I3173
sS'commissions'
p2933
I3174
sS'league'
p2934
I2280
sS'judges'
p2935
I2538
sS'pollinate'
p2936
I3274
sS'Majority'
p2937
I4367
sS'session'
p2938
I702
sS'businesses'
p2939
I3175
sS'Hill'
p2940
I3176
sS'stores'
p2941
I3554
sS'Keating'
p2942
I4368
sS'Lilly'
p2943
I704
sS'find'
p2944
I3177
sS'impact'
p2945
I705
sS'cell'
p2946
I2088
sS'indicator'
p2947
I706
sS'justice'
p2948
I1913
sS'writer'
p2949
I707
sS'distributed'
p2950
I3181
sS'French'
p2951
I1914
sS'penalty'
p2952
I4370
sS'being'
p2953
I510
sS'flights'
p2954
I1915
sS'rubles'
p2955
I4371
sS'generators'
p2956
I3182
sS'condom'
p2957
I709
sS'money'
p2958
I2934
sS'override'
p2959
I3183
sS'Lyonnais'
p2960
I1917
sS'appealing'
p2961
I1004
sS'sure'
p2962
I4067
sS'giants'
p2963
I711
sS'his'
p2964
I4372
sS'hit'
p2965
I2134
sS'gains'
p2966
I4374
sS'meanwhile'
p2967
I2135
sS'Bowater'
p2968
I2137
sS'banned'
p2969
I4586
sS'flowing'
p2970
I899
sS'Jersey'
p2971
I1483
sS'financing'
p2972
I1881
sS'mortgage-backed'
p2973
I4375
sS'advocates'
p2974
I2140
sS'While'
p2975
I1918
sS'Cilcorp'
p2976
I2510
sS'5,000'
p2977
I2142
sS'actions'
p2978
I712
sS'closely'
p2979
I713
sS'competing'
p2980
I1921
sS'1.80'
p2981
I3929
sS'NAM'
p2982
I2623
sS'running'
p2983
I2921
sS'him'
p2984
I4377
sS'merchandise'
p2985
I3192
sS'Maxima'
p2986
I1924
sS'grievances'
p2987
I4378
sS'resolve'
p2988
I3194
sS'Gant'
p2989
I3195
sS'recycled'
p2990
I3196
sS'debt-equity'
p2991
I716
sS'Kong'
p2992
I4085
sS'Mexicans'
p2993
I512
sS'remove'
p2994
I3197
sS'six-month'
p2995
I3198
sS'banking'
p2996
I717
sS'J.'
p2997
I4379
sS'common'
p2998
I3199
sS'activity'
p2999
I4380
sS'river'
p3000
I718
sS'wrote'
p3001
I4381
sS'rumored'
p3002
I719
sS'set'
p3003
I720
sS'could'
p3004
I984
sS'For'
p3005
I721
sS'Nov.'
p3006
I3957
sS'throwing'
p3007
I1926
sS'declines'
p3008
I4383
sS'opposing'
p3009
I931
sS'activists'
p3010
I722
sS'Rosen'
p3011
I1927
sS'instituted'
p3012
I723
sS'France'
p3013
I1928
sS'Enfield'
p3014
I4164
sS'see'
p3015
I724
sS'professional'
p3016
I1623
sS'are'
p3017
I4385
sS'sea'
p3018
I4171
sS'tender'
p3019
I3202
sS'transportation'
p3020
I2725
sS'Fraser'
p3021
I2432
sS'2.6'
p3022
I2213
sS'2.5'
p3023
I2216
sS'feared'
p3024
I3203
sS'regulator'
p3025
I4445
sS'#'
p3026
I725
sS'probable'
p3027
I1931
sS'Critics'
p3028
I4390
sS'guinea'
p3029
I4648
sS'attracting'
p3030
I2715
sS'currently'
p3031
I726
sS'burner'
p3032
I3204
sS'case'
p3033
I4133
sS'pickup'
p3034
I727
sS'Officials'
p3035
I1884
sS'various'
p3036
I3509
sS'electrical'
p3037
I734
sS'downturn'
p3038
I4392
sS'conditions'
p3039
I1935
sS'corruption'
p3040
I4393
sS'favor'
p3041
I4079
sS'risks'
p3042
I4341
sS'available'
p3043
I729
sS'Cambria'
p3044
I4391
sS'recently'
p3045
I4394
sS'creating'
p3046
I4395
sS'missing'
p3047
I1936
sS'targeted'
p3048
I730
sS'dividends'
p3049
I3206
sS'Transgenic'
p3050
I2259
sS'sole'
p3051
I2261
sS'Florida'
p3052
I731
sS'general-purpose'
p3053
I4399
sS'incident'
p3054
I732
sS'ranked'
p3055
I1939
sS'Hollander'
p3056
I3853
sS'turning'
p3057
I2493
sS'UniFirst'
p3058
I3209
sS'African'
p3059
I4402
sS'franchise'
p3060
I4403
sS'dividend'
p3061
I733
sS'Japanese'
p3062
I3702
sS'remaining'
p3063
I1990
sS'official'
p3064
I2249
sS'AND'
p3065
I4404
sS'both'
p3066
I1940
sS'full-time'
p3067
I4693
sS'enables'
p3068
I2514
sS'improved'
p3069
I4698
sS'license'
p3070
I4405
sS'restaurant'
p3071
I3211
sS'bidder'
p3072
I2515
sS'barely'
p3073
I4708
sS'second-largest'
p3074
I1942
sS'Bloedel'
p3075
I3213
sS'foreign'
p3076
I3214
sS'Steve'
p3077
I1943
sS'sensitive'
p3078
I1944
sS'1.65'
p3079
I738
sS'became'
p3080
I4406
sS'rose'
p3081
I4166
sS'long-term'
p3082
I739
sS'let'
p3083
I905
sS'McEnaney'
p3084
I740
sS'El'
p3085
I3118
sS'approve'
p3086
I741
sS'Yet'
p3087
I3215
sS'Cotton'
p3088
I4407
sS'insurance'
p3089
I3106
sS'flies'
p3090
I4408
sS'Friday'
p3091
I3559
sS'headed'
p3092
I1945
sS'simple'
p3093
I3217
sS'loan'
p3094
I742
sS'S-Cargo'
p3095
I4410
sS'community'
p3096
I743
sS'Eduard'
p3097
I1088
sS'Dallas'
p3098
I3218
sS'simply'
p3099
I3219
sS'church'
p3100
I745
sS'rural'
p3101
I1157
sS'mission'
p3102
I23
sS'expensive'
p3103
I3220
sS'headaches'
p3104
I3221
sS'bolster'
p3105
I4411
sS'decline'
p3106
I4412
sS'Khmer'
p3107
I3222
sS'described'
p3108
I1947
sS'raise'
p3109
I3223
sS'duo'
p3110
I4413
sS'monthly'
p3111
I747
sS'defunct'
p3112
I3210
sS'create'
p3113
I3224
sS'outstanding'
p3114
I4343
sS'political'
p3115
I4414
sS'due'
p3116
I4415
sS'strategy'
p3117
I4416
sS'rivals'
p3118
I3225
sS'Protection'
p3119
I1949
sS'Jennison'
p3120
I748
sS'superconductor'
p3121
I2729
sS'Carl'
p3122
I4777
sS'God'
p3123
I1891
sS'Bromley'
p3124
I544
sS'Bancorp'
p3125
I3227
sS'woke'
p3126
I4418
sS'4'
p3127
I2937
sS'firm'
p3128
I749
sS'dialogue'
p3129
I1606
sS'partly'
p3130
I1951
sS'sending'
p3131
I1501
sS'fire'
p3132
I750
sS'gas'
p3133
I3228
sS'precision'
p3134
I4419
sS'deter'
p3135
I2376
sS'fund'
p3136
I752
sS'UNESCO'
p3137
I3987
sS'38'
p3138
I753
sS'understand'
p3139
I3231
sS'specifically'
p3140
I409
sS'bidding'
p3141
I1954
sS'demand'
p3142
I4421
sS'prices'
p3143
I3232
sS'resisted'
p3144
I3233
sS'despite'
p3145
I3786
sS'second-quarter'
p3146
I1955
sS'plants'
p3147
I4422
sS'highest'
p3148
I2355
sS'replaces'
p3149
I3234
sS'Old'
p3150
I758
sS'look'
p3151
I1957
sS'Sidley'
p3152
I1626
sS'solid'
p3153
I3235
sS'judicial'
p3154
I759
sS'straight'
p3155
I760
sS'bill'
p3156
I3236
sS'elections'
p3157
I3237
sS'governor'
p3158
I1958
sS'Agency'
p3159
I153
sS'pace'
p3160
I1959
sS'while'
p3161
I1960
sS'3.35'
p3162
I2403
sS'match'
p3163
I1961
sS'Likewise'
p3164
I2096
sS'fun'
p3165
I3239
sS'Energy'
p3166
I910
sS'Advancing'
p3167
I4426
sS'Industries'
p3168
I1962
sS'City'
p3169
I4427
sS'19.7'
p3170
I4428
sS'Italy'
p3171
I4429
sS'Sumitomo'
p3172
I4430
sS'century'
p3173
I3241
sS'cents'
p3174
I3242
sS'Fingers'
p3175
I1965
sS'evident'
p3176
I1129
sS'Back'
p3177
I2097
sS'disappointing'
p3178
I4431
sS'obstacle'
p3179
I4432
sS'Bach'
p3180
I2098
sS'seen'
p3181
I2522
sS'Pertschuk'
p3182
I769
sS'34'
p3183
I770
sS'examiners'
p3184
I4433
sS'chase'
p3185
I74
sS'lengthy'
p3186
I4435
sS'Chicago-based'
p3187
I4436
sS'ample'
p3188
I2315
sS'anymore'
p3189
I1966
sS'grant'
p3190
I1967
sS'Penney'
p3191
I4437
sS'rosy'
p3192
I4438
sS'rules'
p3193
I1698
sS'virtually'
p3194
I773
sS'widely'
p3195
I4439
sS'rejoin'
p3196
I516
sS'9'
p3197
I4441
sS'products'
p3198
I2099
sS'advise'
p3199
I4442
sS'conflict'
p3200
I1970
sS'higher'
p3201
I4443
sS'development'
p3202
I3245
sS'About'
p3203
I4444
sS'Camp'
p3204
I4175
sS'lawyers'
p3205
I2486
sS'Then'
p3206
I135
sS'Asia-Pacific'
p3207
I3246
sS'defeat'
p3208
I777
sS'friends'
p3209
I2377
sS'yesterday'
p3210
I3247
sS'flows'
p3211
I4447
sS'alert'
p3212
I778
sS'Itel'
p3213
I4448
sS'moment'
p3214
I3248
sS'J.C.'
p3215
I1974
sS'arrived'
p3216
I2500
sS'purpose'
p3217
I3249
sS'robust'
p3218
I4451
sS'{'
p3219
I780
sS'recent'
p3220
I781
sS'Ortega'
p3221
I4176
sS'lower'
p3222
I4452
sS'turnaround'
p3223
I898
sS'Distance'
p3224
I3721
sS'Power'
p3225
I3150
sS'older'
p3226
I1977
sS'Source'
p3227
I1048
sS'Miller'
p3228
I4453
sS'alleging'
p3229
I783
sS'anybody'
p3230
I4454
sS'without'
p3231
I4154
sS'person'
p3232
I784
sS'priced'
p3233
I3229
sS'edge'
p3234
I4457
sS'services'
p3235
I3163
sS'machinery'
p3236
I4458
sS'CBS'
p3237
I3779
sS'organization'
p3238
I144
sS'clearance'
p3239
I786
sS'rates'
p3240
I3134
sS'spend'
p3241
I3253
sS'preference'
p3242
I3254
sS'pollen'
p3243
I4460
sS'grievance'
p3244
I4461
sS'one-year'
p3245
I3255
sS'junk-bond'
p3246
I3256
sS'-'
p3247
I3763
sS'polled'
p3248
I4462
sS'settlements'
p3249
I1980
sS'competitive'
p3250
I4463
sS'Virginia'
p3251
I3151
sS'distracting'
p3252
I3257
sS'adjustable'
p3253
I2733
sS'tennis'
p3254
I2655
sS'questions'
p3255
I4464
sS'world'
p3256
I520
sS'retired'
p3257
I1505
sS'alternative'
p3258
I3258
sS'conservative'
p3259
I1715
sS'timber'
p3260
I3259
sS'discipline'
p3261
I2478
sS'cut'
p3262
I3261
sS'helping'
p3263
I4515
sS'$'
p3264
I1982
sS'advanced'
p3265
I3855
sS'over-the-counter'
p3266
I1983
sS'informal'
p3267
I1984
sS'advisers'
p3268
I4466
sS'workers'
p3269
I4467
sS'danger'
p3270
I2101
sS'guaranteed'
p3271
I1985
sS'attractive'
p3272
I4737
sS'exclusively'
p3273
I4468
sS'soybeans'
p3274
I4469
sS'uncertainty'
p3275
I2562
sS'internal'
p3276
I690
sS'Christopher'
p3277
I3264
sS'homeland'
p3278
I792
sS'Berkeley'
p3279
I1987
sS'Brands'
p3280
I793
sS'Germany'
p3281
I4346
sS'ruled'
p3282
I1704
sS'administrative'
p3283
I3265
sS'merely'
p3284
I2735
sS'surprised'
p3285
I794
sS'chairman'
p3286
I1991
sS'...'
p3287
I1992
sS'complaint'
p3288
I1443
sS'bills'
p3289
I4603
sS'Last'
p3290
I2596
sS'They'
p3291
I139
sS'emergency'
p3292
I798
sS'demands'
p3293
I799
sS'evaluate'
p3294
I1993
sS'rebound'
p3295
I212
sS'Bickwit'
p3296
I3268
sS'Commons'
p3297
I3269
sS'Suisse'
p3298
I1995
sS'Air'
p3299
I4471
sS'matters'
p3300
I3270
sS'game'
p3301
I1996
sS'clout'
p3302
I2103
sS'foreigners'
p3303
I3271
sS'Campaneris'
p3304
I3272
sS'bit'
p3305
I3273
sS'Or'
p3306
I804
sS'projects'
p3307
I805
sS'formal'
p3308
I806
sS'stimulators'
p3309
I1997
sS'summit'
p3310
I678
sS'anthers'
p3311
I807
sS'Undersecretary'
p3312
I98
sS'follows'
p3313
I3275
sS'message'
p3314
I4473
sS'separately'
p3315
I2638
sS'communications'
p3316
I809
sS'regular'
p3317
I2526
sS'individuals'
p3318
I810
sS'indication'
p3319
I3277
sS'400,000'
p3320
I1300
sS'popular'
p3321
I1999
sS'boxy'
p3322
I920
sS'maquiladoras'
p3323
I3278
sS'contributions'
p3324
I4527
sS'healthy'
p3325
I3963
sS'paralyzed'
p3326
I4474
sS'circles'
p3327
I1298
sS'new-model'
p3328
I4475
sS'often'
p3329
I3280
sS'Gulf'
p3330
I3281
sS'spring'
p3331
I815
sS'creation'
p3332
I2001
sS'some'
p3333
I2002
sS'grass-roots'
p3334
I3282
sS'3.6'
p3335
I4476
sS'3.7'
p3336
I2668
sS'3.5'
p3337
I4477
sS'prohibited'
p3338
I2337
sS'pricing'
p3339
I3283
sS'3.1'
p3340
I2674
sS"'ve"
p3341
I2944
sS'fanfare'
p3342
I2004
sS'3.8'
p3343
I4478
sS'leaders'
p3344
I3648
sS'abandon'
p3345
I3051
sS'scale'
p3346
I3284
sS'Seoul'
p3347
I3285
sS'Pittsburgh'
p3348
I2006
sS'Frank'
p3349
I816
sS'decision'
p3350
I3286
sS'though'
p3351
I3766
sS'audience'
p3352
I2946
sS'per'
p3353
I3287
sS'modest'
p3354
I402
sS'Fund'
p3355
I4479
sS'bankruptcy-law'
p3356
I4480
sS'Massachusetts'
p3357
I2008
sS'London'
p3358
I2947
sS'Yesterday'
p3359
I1142
sS'payments'
p3360
I2324
sS'Pact'
p3361
I818
sS'be'
p3362
I819
sS'claimed'
p3363
I3535
sS'run'
p3364
I2718
sS'300'
p3365
I3289
sS'first-time'
p3366
I2011
sS'Its'
p3367
I3775
sS'continuing'
p3368
I3290
sS'agreement'
p3369
I822
sS'David'
p3370
I3291
sS'aloft'
p3371
I4483
sS'step'
p3372
I2012
sS'Indianapolis'
p3373
I3293
sS'Moreover'
p3374
I3294
sS'major'
p3375
I672
sS'abroad'
p3376
I2015
sS'August'
p3377
I337
sS'pipeline'
p3378
I4484
sS'goods'
p3379
I3295
sS'francs'
p3380
I2740
sS'zip'
p3381
I923
sS'anything'
p3382
I825
sS'cigarette'
p3383
I2016
sS'exaggerated'
p3384
I826
sS'Pont'
p3385
I827
sS'&'
p3386
I4560
sS'Savings'
p3387
I3161
sS'remains'
p3388
I2104
sS'range'
p3389
I4487
sS'ounce'
p3390
I3296
sS'Committee'
p3391
I2017
sS'positive'
p3392
I2018
sS'Before'
p3393
I1711
sS'farmers'
p3394
I4093
sS'block'
p3395
I2019
sS'72'
p3396
I4356
sS'seeing'
p3397
I2020
sS'Stark'
p3398
I4027
sS'Eli'
p3399
I2021
sS'plenty'
p3400
I3298
sS'Stoltzman'
p3401
I376
sS'precisely'
p3402
I2186
sS'abusive'
p3403
I3299
sS'within'
p3404
I2022
sS'retailer'
p3405
I3300
sS'steady'
p3406
I276
sS'150-member'
p3407
I831
sS'Everything'
p3408
I4488
sS'because'
p3409
I4746
sS'primarily'
p3410
I832
sS'repaid'
p3411
I833
sS'sports'
p3412
I3973
sS'Ozal'
p3413
I2555
sS'bankruptcy'
p3414
I3301
sS'canal'
p3415
I4490
sS'Composite'
p3416
I2025
sS'treated'
p3417
I3145
sS'costly'
p3418
I1963
sS'question'
p3419
I4491
sS'handles'
p3420
I3974
sS'long'
p3421
I4492
sS'ordered'
p3422
I2038
sS'Georgia-Pacific'
p3423
I4493
sS'crackdown'
p3424
I836
sS'Unification'
p3425
I3303
sS'79'
p3426
I2026
sS'suit'
p3427
I837
sS'Mips'
p3428
I3304
sS'grew'
p3429
I1919
sS'Ross'
p3430
I4226
sS'scared'
p3431
I4494
sS'files'
p3432
I4495
sS'considerably'
p3433
I839
sS'plunge'
p3434
I4496
sS'elsewhere'
p3435
I840
sS'investigations'
p3436
I3914
sS'asset-backed'
p3437
I2932
sS'great'
p3438
I906
sS'adjusting'
p3439
I3306
sS'vehicle'
p3440
I2107
sS'Attorney'
p3441
I2529
sS'goods-producing'
p3442
I4497
sS'Ms.'
p3443
I4498
sS'deductions'
p3444
I842
sS'two-part'
p3445
I3308
sS'repeatedly'
p3446
I4499
sS'Ltd.'
p3447
I4500
sS'filed'
p3448
I4501
sS'hopes'
p3449
I3309
sS'subsidiary'
p3450
I3310
sS'line'
p3451
I843
sS'Austin'
p3452
I4502
sS'raising'
p3453
I4503
sS'posted'
p3454
I844
sS'GDP'
p3455
I845
sS'Beijing'
p3456
I3311
sS'rejection'
p3457
I3312
sS'refinancing'
p3458
I846
sS'Office'
p3459
I847
sS'Tuesday'
p3460
I2591
sS'Alvin'
p3461
I3313
sS'Loan'
p3462
I4504
sS'goodwill'
p3463
I3166
sS'Africa'
p3464
I849
sS'up'
p3465
I850
sS'us'
p3466
I851
sS'Thatcher'
p3467
I2878
sS'amendment'
p3468
I1096
sS'maturity'
p3469
I852
sS"'re"
p3470
I3314
sS'exploration'
p3471
I3315
sS'today'
p3472
I3976
sS'planes'
p3473
I3316
sS'jumbo'
p3474
I3317
sS'ago'
p3475
I866
sS'Florence'
p3476
I2888
sS'medical'
p3477
I2530
sS'yelled'
p3478
I855
sS'OTC'
p3479
I4507
sS'associated'
p3480
I4508
sS'adults'
p3481
I2039
sS'furor'
p3482
I3901
sS'Perhaps'
p3483
I3319
sS'stripped'
p3484
I3320
sS'start-up'
p3485
I857
sS'Dr.'
p3486
I2953
sS'muscles'
p3487
I3136
sS'Eventually'
p3488
I2400
sS'To'
p3489
I2040
sS'single'
p3490
I2301
sS'associates'
p3491
I4509
sS'Twins'
p3492
I859
sS'RATES'
p3493
I3892
sS'International'
p3494
I4186
sS'rally'
p3495
I4510
sS'Voices'
p3496
I3771
sS'Manhattan'
p3497
I860
sS'RC6280'
p3498
I3323
sS'%'
p3499
I3324
sS'May'
p3500
I3325
sS'employment'
p3501
I4751
sS'Venezuela'
p3502
I4063
sS'peace'
p3503
I4511
sS'A.'
p3504
I2045
sS'These'
p3505
I3978
sS'Mac'
p3506
I3326
sS'reputation'
p3507
I3772
sS'Mae'
p3508
I3327
sS'income'
p3509
I4512
sS'department'
p3510
I2048
sS'Man'
p3511
I3328
sS'responded'
p3512
I1311
sS'TNT'
p3513
I4513
sS'voters'
p3514
I1964
sS'elements'
p3515
I862
sS'Stearns'
p3516
I2351
sS'calculating'
p3517
I2959
sS'provided'
p3518
I4187
sS'testified'
p3519
I2117
sS're-election'
p3520
I2051
sS'after-tax'
p3521
I3773
sS'problems'
p3522
I4514
sS'prepared'
p3523
I3330
sS'regulations'
p3524
I4550
sS'generated'
p3525
I4516
sS'Sentra'
p3526
I2054
sS'Canonie'
p3527
I863
sS'allowing'
p3528
I4517
sS'hair'
p3529
I3573
sS'missile'
p3530
I2119
sS'sides'
p3531
I864
sS'mood'
p3532
I4188
sS'rallied'
p3533
I3332
sS'night'
p3534
I1408
sS'land'
p3535
I867
sS'methodologies'
p3536
I868
sS'Ad'
p3537
I2057
sS'vice'
p3538
I4518
sS'Zapfel'
p3539
I3333
sS'age'
p3540
I869
sS'vehicles'
p3541
I3334
sS'backed'
p3542
I3116
sS'bankers'
p3543
I3335
sS'departments'
p3544
I4519
sS'An'
p3545
I2060
sS'leftist'
p3546
I3833
sS'As'
p3547
I2061
sS'implied'
p3548
I1799
sS'Scott'
p3549
I3338
sS'Asian'
p3550
I3339
sS'Geiger'
p3551
I2063
sS'far'
p3552
I4251
sS'international'
p3553
I2723
sS'Soviets'
p3554
I2064
sS'Oakland'
p3555
I4521
sS'requires'
p3556
I2065
sS'having'
p3557
I872
sS'once'
p3558
I4522
sS'portraying'
p3559
I3341
sS'partial'
p3560
I873
sS'fixed-rate'
p3561
I2068
sS'unemployment'
p3562
I3844
sS'issued'
p3563
I4523
sS'resistance'
p3564
I4524
sS'tested'
p3565
I616
sS'However'
p3566
I4525
sS'Pell'
p3567
I2069
sS'advice'
p3568
I3068
sS'broader'
p3569
I876
sS'served'
p3570
I2950
sS'Department'
p3571
I3872
sS'attracted'
p3572
I4019
sS'adjustment'
p3573
I4526
sS'15,000'
p3574
I3342
sS'centers'
p3575
I878
sS'issues'
p3576
I4528
sS'rigidity'
p3577
I4529
sS'compact'
p3578
I2071
sS'demonstrators'
p3579
I1103
sS'McLaughlin'
p3580
I880
sS'Someone'
p3581
I3343
sS'Business'
p3582
I3344
sS'Means'
p3583
I3345
sS'similar'
p3584
I2037
sS'concerned'
p3585
I881
sS'young'
p3586
I882
sS'send'
p3587
I883
sS'appointed'
p3588
I2120
sS'intensive'
p3589
I3346
sS'Union'
p3590
I884
sS'does'
p3591
I1104
sS'UAL'
p3592
I4531
sS'Swanson'
p3593
I1678
sS'stable'
p3594
I4532
sS'quarterly'
p3595
I3347
sS'officials'
p3596
I2250
sS'include'
p3597
I4533
sS'friendly'
p3598
I2074
sS'indicating'
p3599
I2791
sS'Steel'
p3600
I3305
sS'probe'
p3601
I886
sS'Young'
p3602
I2075
sS'organizations'
p3603
I1517
sS'continues'
p3604
I887
sS'Mrs.'
p3605
I2077
sS'wave'
p3606
I2078
sS'putting'
p3607
I3349
sS'promise'
p3608
I4771
sS'Not'
p3609
I2072
sS'specific'
p3610
I3866
sS'drinking'
p3611
I4534
sS'continued'
p3612
I889
sS'minerals'
p3613
I890
sS'Markus'
p3614
I2116
sS'entire'
p3615
I3351
sS'Unificationist'
p3616
I3797
sS'litigation'
p3617
I4656
sS'sparked'
p3618
I665
sS'Wells'
p3619
I2369
sS'meant'
p3620
I2080
sS'positions'
p3621
I2081
sS'notes'
p3622
I4535
sS'fewer'
p3623
I891
sS'8.95'
p3624
I2082
sS'Defense'
p3625
I3352
sS'Morgan'
p3626
I2375
sS'car'
p3627
I1518
sS'Tomash'
p3628
I2648
sS'challenge'
p3629
I934
sS'hiding'
p3630
I1108
sS'Bankruptcy'
p3631
I893
sS'concluded'
p3632
I4537
sS'Index'
p3633
I2084
sS'averaged'
p3634
I2123
sS'Martin'
p3635
I1535
sS'350'
p3636
I1082
sS'Marks'
p3637
I2795
sS'13/16'
p3638
I1100
sS'Long'
p3639
I3354
sS'licensed'
p3640
I682
sS'Hutton'
p3641
I4539
sS'Equipment'
p3642
I2085
sS'State'
p3643
I4540
sS'picked'
p3644
I2086
sS'growing'
p3645
I2746
sS'nests'
p3646
I3355
sS'makers'
p3647
I4542
sS'index'
p3648
I895
sS'staffers'
p3649
I3357
sS'software'
p3650
I1113
sS'plays'
p3651
I2087
sS'underwriters'
p3652
I2962
sS'rate'
p3653
I4258
sS'giving'
p3654
I3358
sS'several'
p3655
I3832
sS'probably'
p3656
I1934
sS'fat'
p3657
I4253
sS'Alan'
p3658
I896
sS'practices'
p3659
I2612
sS'access'
p3660
I3359
sS'consistently'
p3661
I897
sS'waiting'
p3662
I4543
sS'clipboard'
p3663
I3360
sS'eating'
p3664
I2010
sS'capital'
p3665
I4544
sS'crossed'
p3666
I2125
sS';'
p3667
I2089
sS'America'
p3668
I2090
sS'Hong'
p3669
I3888
sS'exercise'
p3670
I3361
sS'thin'
p3671
I936
sS'body'
p3672
I3362
sS'Poor'
p3673
I3178
sS'ensure'
p3674
I3885
sS'led'
p3675
I903
sS'chose'
p3676
I4545
sS'stance'
p3677
I2092
sS'exchange'
p3678
I3363
sS'respectively'
p3679
I904
sS'pushing'
p3680
I4547
sS'commercial'
p3681
I2093
sS'amounts'
p3682
I2043
sS'jointly'
p3683
I3364
sS'resources'
p3684
I618
sS'its'
p3685
I645
sS'Green'
p3686
I2095
sS'making'
p3687
I2747
sS'issuing'
p3688
I2215
sS'Boyer'
p3689
I3366
sS'extreme'
p3690
I3367
sS'39'
p3691
I3368
sS'engage'
p3692
I907
sS'Mixte'
p3693
I1316
sS'Chinese'
p3694
I3369
sS'33'
p3695
I3370
sS'32'
p3696
I3371
sS'31'
p3697
I3372
sS'30'
p3698
I3373
sS'37'
p3699
I3374
sS'27.1'
p3700
I4756
sS'35'
p3701
I3375
sS'leaving'
p3702
I4548
sS'engine'
p3703
I4127
sS'suggests'
p3704
I3244
sS'Vietnam'
p3705
I2966
sS'Sachs'
p3706
I1658
sS'insulin'
p3707
I912
sS'Motor'
p3708
I4549
sS'Big'
p3709
I3780
sS'opinion'
p3710
I913
sS'residents'
p3711
I914
sS'gene'
p3712
I2100
sS'makes'
p3713
I915
sS'maker'
p3714
I916
sS'involves'
p3715
I917
sS'Economic'
p3716
I3252
sS'named'
p3717
I3377
sS'debts'
p3718
I2540
sS'Brothers'
p3719
I4758
sS'deputy'
p3720
I3263
sS'win'
p3721
I2102
sS'Robert'
p3722
I4552
sS'7.55'
p3723
I919
sS'baskets'
p3724
I3378
sS'41.60'
p3725
I4553
sS'decrease'
p3726
I3379
sS'privately'
p3727
I3380
sS'motor'
p3728
I4554
sS'Brazilian'
p3729
I3381
sS'Fla.'
p3730
I3121
sS'apply'
p3731
I4555
sS'complex'
p3732
I3830
sS'recapitalization'
p3733
I1269
sS'standing'
p3734
I921
sS'Trifari'
p3735
I2754
sS'use'
p3736
I4556
sS'fee'
p3737
I4557
sS'from'
p3738
I4558
sS'consumption'
p3739
I4559
sS'failed'
p3740
I708
sS'142.85'
p3741
I4561
sS'illegal'
p3742
I925
sS'Hun'
p3743
I4562
sS'live'
p3744
I1511
sS'flat'
p3745
I4274
sS'next'
p3746
I926
sS'few'
p3747
I4563
sS'examination'
p3748
I4564
sS'Fe'
p3749
I3383
sS'year-ago'
p3750
I3384
sS'timetable'
p3751
I4565
sS'themselves'
p3752
I3385
sS'panel'
p3753
I2109
sS'USX'
p3754
I3541
sS'historically'
p3755
I2110
sS'reflects'
p3756
I2111
sS'sort'
p3757
I4567
sS'bureaucracy'
p3758
I2112
sS'Lane'
p3759
I4568
sS'1/4'
p3760
I2113
sS'journalists'
p3761
I4569
sS'Mulford'
p3762
I929
sS'Appropriations'
p3763
I2114
sS'started'
p3764
I2115
sS'trait'
p3765
I3386
sS'inclined'
p3766
I4570
sS'equity'
p3767
I710
sS'benchmark'
p3768
I3329
sS'Wednesday'
p3769
I2118
sS'S&P'
p3770
I3387
sS'1/8'
p3771
I3331
sS'dealings'
p3772
I930
sS'S&L'
p3773
I3388
sS'guarantees'
p3774
I1989
sS'sharply'
p3775
I932
sS'8'
p3776
I3184
sS'filings'
p3777
I2091
sS'compromise'
p3778
I1276
sS'DeSoto'
p3779
I3783
sS'boards'
p3780
I3585
sS'majority'
p3781
I3152
sS'account'
p3782
I3389
sS'excellent'
p3783
I3681
sS'animals'
p3784
I888
sS'announcing'
p3785
I2121
sS'this'
p3786
I933
sS'ride'
p3787
I2122
sS'stations'
p3788
I3390
sS'stroke'
p3789
I4571
sS'recession'
p3790
I2124
sS'anywhere'
p3791
I2032
sS'obvious'
p3792
I3391
sS'publications'
p3793
I902
sS'uses'
p3794
I1975
sS'December'
p3795
I3586
sS'industrial'
p3796
I3392
sS'meet'
p3797
I2126
sS'closing'
p3798
I3393
sS'drops'
p3799
I2127
sS'Technology'
p3800
I2732
sS'F.'
p3801
I3394
sS'dropped'
p3802
I3986
sS'control'
p3803
I2128
sS'Prime'
p3804
I4572
sS'Israeli'
p3805
I2129
sS'120-day'
p3806
I4573
sS'Northern'
p3807
I4574
sS'do'
p3808
I1321
sS'process'
p3809
I937
sS'discussed'
p3810
I4195
sS'proportions'
p3811
I3395
sS'0.2'
p3812
I4575
sS'0.5'
p3813
I2312
sS'purposes'
p3814
I938
sS'pieces'
p3815
I939
sS'high'
p3816
I940
sS'effectively'
p3817
I3396
sS'Mr.'
p3818
I2130
sS'reserves'
p3819
I3397
sS'pulling'
p3820
I2131
sS'recognized'
p3821
I2340
sS'employs'
p3822
I3398
sS'sought'
p3823
I2133
sS'Party'
p3824
I4578
sS'voice'
p3825
I3663
sS'calculated'
p3826
I1305
sS'Laidig'
p3827
I4579
sS'stadiums'
p3828
I4299
sS'sit'
p3829
I4580
sS'protect'
p3830
I3802
sS'six'
p3831
I4581
sS'information'
p3832
I3992
sS'arrangement'
p3833
I2136
sS'regions'
p3834
I3401
sS'responsibilities'
p3835
I3402
sS'Paper'
p3836
I2970
sS'animal'
p3837
I944
sS'instead'
p3838
I4584
sS'Walter'
p3839
I1527
sS'panic'
p3840
I4585
sS'butterfat'
p3841
I3983
sS'airline'
p3842
I2971
sS'watch'
p3843
I3784
sS'Nissan'
p3844
I3405
sS'testimony'
p3845
I1726
sS'Red'
p3846
I4347
sS'3'
p3847
I457
sS'Domenici'
p3848
I1823
sS'maturities'
p3849
I3399
sS'Terms'
p3850
I4588
sS'engineering'
p3851
I493
sS'eyes'
p3852
I2812
sS'owns'
p3853
I2286
sS'physical'
p3854
I4141
sS'balloonists'
p3855
I1070
sS'light'
p3856
I4589
sS'drafting'
p3857
I1361
sS'counter'
p3858
I947
sS'lines'
p3859
I3407
sS'Community'
p3860
I948
sS'One'
p3861
I949
sS'Oct.'
p3862
I950
sS'chief'
p3863
I3408
sS'Tennessee'
p3864
I3409
sS'allow'
p3865
I951
sS'Gramm-Rudman'
p3866
I4376
sS'looking'
p3867
I6
sS'divided'
p3868
I361
sS'3/4'
p3869
I1920
sS'Schramm'
p3870
I953
sS'holds'
p3871
I3400
sS'soggy'
p3872
I2144
sS'theft'
p3873
I3190
sS'producer'
p3874
I954
sS'institutional'
p3875
I3410
sS'manufactured'
p3876
I2963
sS'taxpayer'
p3877
I1830
sS'Smith'
p3878
I2145
sS'produced'
p3879
I957
sS'growers'
p3880
I4541
sS'own'
p3881
I4768
sS'including'
p3882
I2147
sS'directs'
p3883
I958
sS'135'
p3884
I3495
sS'during'
p3885
I1922
sS'permission'
p3886
I3187
sS'protests'
p3887
I1728
sS'year-earlier'
p3888
I960
sS'badges'
p3889
I4590
sS'industries'
p3890
I3412
sS'delay'
p3891
I943
sS'negotiated'
p3892
I3413
sS'soft-drink'
p3893
I1923
sS'Exchange'
p3894
I2151
sS'Saatchi'
p3895
I2152
sS'ships'
p3896
I4591
sS'labor'
p3897
I3414
sS'meantime'
p3898
I961
sS'newsprint'
p3899
I3877
sS'willing'
p3900
I3415
sS'stalled'
p3901
I962
sS'covered'
p3902
I4593
sS'holiday'
p3903
I4594
sS'More'
p3904
I4315
sS'pending'
p3905
I4595
sS'crash'
p3906
I4596
sS'greater'
p3907
I3417
sS'auto'
p3908
I2154
sS'practice'
p3909
I3544
sS'earn'
p3910
I2549
sS'Herbert'
p3911
I964
sS'cutting'
p3912
I3418
sS'courtroom'
p3913
I3419
sS'hands'
p3914
I2155
sS'front'
p3915
I2156
sS'Sony'
p3916
I728
sS'assets'
p3917
I3004
sS'investor'
p3918
I4599
sS'fled'
p3919
I4600
sS'capital-gains'
p3920
I3422
sS'Tator'
p3921
I715
sS'Guber-Peters'
p3922
I2157
sS'Supreme'
p3923
I2158
sS'fees'
p3924
I4327
sS'San'
p3925
I966
sS'Sam'
p3926
I967
sS'spinal'
p3927
I4199
sS'Roger'
p3928
I3923
sS'warned'
p3929
I3423
sS'countries'
p3930
I3789
sS'World'
p3931
I2282
sS'identified'
p3932
I3424
sS'Israel'
p3933
I1674
sS'merge'
p3934
I968
sS'Yetnikoff'
p3935
I969
sS"O'Kicki"
p3936
I2161
sS'fields'
p3937
I2551
sS'references'
p3938
I2975
sS'Fed'
p3939
I3426
sS'stock'
p3940
I3404
sS'eases'
p3941
I4604
sS'E.'
p3942
I3108
sS'dismissing'
p3943
I4583
sS'Statistics'
p3944
I2162
sS'From'
p3945
I1115
sS'Network'
p3946
I1117
sS'doing'
p3947
I973
sS'Mediterranean'
p3948
I3790
sS'Balloon'
p3949
I3427
sS'lawful'
p3950
I4605
sS'700'
p3951
I2163
sS'related'
p3952
I4606
sS'society'
p3953
I974
sS'designer'
p3954
I2165
sS'variety'
p3955
I2166
sS'Treasury'
p3956
I976
sS'dollar-denominated'
p3957
I3715
sS'our'
p3958
I4608
sS'80'
p3959
I4609
sS'salesman'
p3960
I3428
sS'IFI'
p3961
I2169
sS'special'
p3962
I2170
sS'85'
p3963
I4610
sS'giant'
p3964
I3179
sS"'"
p3965
I977
sS'entertainment'
p3966
I2171
sS'Corp.'
p3967
I1146
sS'dismissal'
p3968
I978
sS'bad'
p3969
I2553
sS'Genentech'
p3970
I1163
sS'strokes'
p3971
I1360
sS'rise'
p3972
I3642
sS'China'
p3973
I3430
sS'negotiable'
p3974
I1116
sS'charge'
p3975
I3935
sS'electronics'
p3976
I3431
sS'intervention'
p3977
I1732
sS'supports'
p3978
I4611
sS'red'
p3979
I3432
sS'thrifts'
p3980
I4612
sS'disclose'
p3981
I4613
sS'shut'
p3982
I979
sS'Kakita'
p3983
I3433
sS'Meek'
p3984
I980
sS'This'
p3985
I4614
sS'Judicial'
p3986
I3434
sS'troops'
p3987
I2738
sS'Fresca'
p3988
I3966
sS'Rubendall'
p3989
I4616
sS'ban'
p3990
I2554
sS'completely'
p3991
I2175
sS'2.50'
p3992
I4774
sS'tied'
p3993
I945
sS'latest'
p3994
I1910
sS'early'
p3995
I1699
sS'Senator'
p3996
I3435
sS'reporters'
p3997
I714
sS'business'
p3998
I1720
sS'additional'
p3999
I2347
sS'Directorate'
p4000
I3436
sS'allies'
p4001
I3437
sS'Nabisco'
p4002
I4201
sS'afternoon'
p4003
I2646
sS'dubbed'
p4004
I983
sS'Nikkei'
p4005
I3438
sS'recipes'
p4006
I3439
sS'area'
p4007
I1733
sS'diminished'
p4008
I2179
sS'Lawson'
p4009
I3994
sS'times'
p4010
I3689
sS'counterpart'
p4011
I2181
sS'riding'
p4012
I1032
sS'length'
p4013
I986
sS'pigs'
p4014
I987
sS'retain'
p4015
I3440
sS'secretary'
p4016
I1331
sS'stimulate'
p4017
I988
sS'destruction'
p4018
I2302
sS'degree'
p4019
I4546
sS'plastics'
p4020
I1230
sS'succeeds'
p4021
I2182
sS'third'
p4022
I2451
sS'Review'
p4023
I989
sS'2,000'
p4024
I3442
sS'Administration'
p4025
I3443
sS'unsupported'
p4026
I2184
sS'alleged'
p4027
I4204
sS'improving'
p4028
I2185
sS'galvanized'
p4029
I4617
sS'submit'
p4030
I156
sS'lagging'
p4031
I3446
sS'ties'
p4032
I946
sS'owner'
p4033
I991
sS'Sventek'
p4034
I3447
sS'1989'
p4035
I4184
sS'quality'
p4036
I2187
sS'owning'
p4037
I3448
sS'Ries'
p4038
I993
sS'ballot'
p4039
I1098
sS'vetoed'
p4040
I994
sS'management'
p4041
I2188
sS'North'
p4042
I4618
sS'Cohen'
p4043
I3276
sS'Citicorp'
p4044
I1734
sS'bears'
p4045
I2189
sS'constitution'
p4046
I4361
sS'achieved'
p4047
I4382
sS'system'
p4048
I997
sS'adopted'
p4049
I3739
sS'Coast'
p4050
I3449
sS'priority'
p4051
I4620
sS'their'
p4052
I4621
sS'attack'
p4053
I2192
sS'Coates'
p4054
I4622
sS'slide'
p4055
I2160
sS'ton'
p4056
I3743
sS'perfectly'
p4057
I2193
sS'emphasized'
p4058
I2298
sS'final'
p4059
I3754
sS'Association'
p4060
I3450
sS'back'
p4061
I268
sS'enforcement'
p4062
I998
sS'Lincoln'
p4063
I3451
sS'lot'
p4064
I1736
sS'big'
p4065
I3266
sS'shelf'
p4066
I4623
sS'doomed'
p4067
I4624
sS'exactly'
p4068
I2194
sS'Sider'
p4069
I3157
sS'anti-apartheid'
p4070
I3655
sS'environmental'
p4071
I3454
sS'chemicals'
p4072
I2195
sS'reflecting'
p4073
I4626
sS'manipulation'
p4074
I2196
sS'branches'
p4075
I3997
sS'overwhelming'
p4076
I2197
sS'discretionary'
p4077
I1318
sS'steel'
p4078
I1001
sS'loved'
p4079
I3456
sS'colleagues'
p4080
I1002
sS'hearings'
p4081
I4628
sS'bid'
p4082
I3267
sS'Metropolitan'
p4083
I1538
sS'minister'
p4084
I4131
sS'culture'
p4085
I1929
sS'Mass'
p4086
I4276
sS'submitted'
p4087
I2199
sS'claim'
p4088
I2200
sS'compensation'
p4089
I3457
sS'individual'
p4090
I3201
sS'11/16'
p4091
I1085
sS'bind'
p4092
I3406
sS'visited'
p4093
I3458
sS'Peter'
p4094
I4630
sS'steep'
p4095
I1351
sS'Imperial'
p4096
I3532
sS'creditors'
p4097
I3806
sS'result'
p4098
I170
sS'1.4'
p4099
I4631
sS'imaginative'
p4100
I3459
sS'1.6'
p4101
I4633
sS'1.7'
p4102
I4634
sS'1.1'
p4103
I4635
sS'1.2'
p4104
I4636
sS'1.3'
p4105
I4637
sS'unchanged'
p4106
I2205
sS'partnership'
p4107
I1007
sS'1.8'
p4108
I4638
sS'seaborne'
p4109
I1008
sS'comfortable'
p4110
I3460
sS'corrupt'
p4111
I3793
sS'Other'
p4112
I2207
sS'Others'
p4113
I2542
sS'unlikely'
p4114
I3461
sS'38.5'
p4115
I1372
sS'Metromedia'
p4116
I4639
sS'close'
p4117
I1930
sS'turn'
p4118
I4023
sS'border'
p4119
I2209
sS'linked'
p4120
I4640
sS'viewed'
p4121
I1010
sS'Pao'
p4122
I3464
sS'Development'
p4123
I2210
sS'instrumentation'
p4124
I2211
sS'Oil'
p4125
I3465
sS'22.8'
p4126
I4757
sS'brokers'
p4127
I4420
sS'Goldman'
p4128
I3466
sS'After'
p4129
I4641
sS'able'
p4130
I3845
sS'Thanksgiving'
p4131
I3188
sS'arm'
p4132
I4387
sS'instance'
p4133
I2214
sS'concerns'
p4134
I3467
sS'declined'
p4135
I4388
sS'which'
p4136
I4642
sS'equaling'
p4137
I1012
sS'truck'
p4138
I2217
sS'2.4'
p4139
I4389
sS'Pierce'
p4140
I1013
sS'beyond'
p4141
I1853
sS'agenda'
p4142
I2141
sS'combat'
p4143
I4643
sS'collaboration'
p4144
I4644
sS'who'
p4145
I4645
sS'accountants'
p4146
I4646
sS'useful'
p4147
I2734
sS'eight'
p4148
I3471
sS'but'
p4149
I3608
sS'preliminary'
p4150
I3472
sS'sedan'
p4151
I3473
sS'Treaty'
p4152
I2980
sS'expired'
p4153
I3893
sS'payment'
p4154
I3474
sS'Pa.'
p4155
I3475
sS'Reserve'
p4156
I1016
sS'so-called'
p4157
I1017
sS'Microsoft'
p4158
I2338
sS'consequences'
p4159
I2220
sS'bargaining'
p4160
I835
sS'sweeping'
p4161
I1689
sS'nobody'
p4162
I3453
sS'Ultimately'
p4163
I2306
sS'Some'
p4164
I1446
sS'MCA'
p4165
I1020
sS'counted'
p4166
I952
sS'looked'
p4167
I3909
sS'N.V.'
p4168
I4181
sS'proceedings'
p4169
I3912
sS'construction'
p4170
I1126
sS'mechanical'
p4171
I2908
sS'normally'
p4172
I3479
sS'Saturday'
p4173
I3480
sS'fact'
p4174
I1022
sS'goals'
p4175
I4649
sS'impression'
p4176
I2224
sS'emerging'
p4177
I2225
sS'Blair'
p4178
I1932
sS'chances'
p4179
I4650
sS'agreed'
p4180
I4651
sS'sent'
p4181
I885
sS'Chemical'
p4182
I4652
sS'destroy'
p4183
I436
sS'Al'
p4184
I2059
sS'Under'
p4185
I1025
sS'portfolio'
p4186
I3482
sS'fear'
p4187
I4653
sS'feat'
p4188
I4654
sS'610'
p4189
I612
sS'decade'
p4190
I1027
sS'staff'
p4191
I3483
sS'answer'
p4192
I2442
sS'bottling'
p4193
I4657
sS'promote'
p4194
I4208
sS'grabbed'
p4195
I3484
sS'earned'
p4196
I2229
sS'holder'
p4197
I4050
sS'('
p4198
I2230
sS'specified'
p4199
I3321
sS'fans'
p4200
I3205
sS'controls'
p4201
I3485
sS'should'
p4202
I1030
sS'terminal'
p4203
I1509
sS'loafers'
p4204
I3486
sS'bases'
p4205
I2231
sS'candidates'
p4206
I4658
sS'York'
p4207
I3487
sS'employee'
p4208
I2232
sS'employed'
p4209
I2233
sS'he'
p4210
I2356
sS'local'
p4211
I4659
sS'secretaries'
p4212
I1033
sS'nonunion'
p4213
I4660
sS'Coke'
p4214
I2749
sS'regularly'
p4215
I3488
sS'move'
p4216
I955
sS'means'
p4217
I2108
sS'beat'
p4218
I3489
sS'Appleyard'
p4219
I3490
sS'overall'
p4220
I2234
sS'prohibition'
p4221
I1037
sS'120'
p4222
I2235
sS'joint'
p4223
I2236
sS'122'
p4224
I2237
sS'made'
p4225
I4783
sS'Newport'
p4226
I2238
sS'125'
p4227
I3998
sS'joins'
p4228
I3999
sS'deputies'
p4229
I2029
sS'timing'
p4230
I3491
sS'tactics'
p4231
I4784
sS'THE'
p4232
I4664
sS'argues'
p4233
I2766
sS'procedures'
p4234
I2242
sS'Once'
p4235
I1038
sS'following'
p4236
I2094
sS'processes'
p4237
I2244
sS'amid'
p4238
I3700
sS'committees'
p4239
I1554
sS'initial'
p4240
I1588
sS'trucks'
p4241
I4297
sS'course'
p4242
I373
sS'Sullivan'
p4243
I4666
sS'approach'
p4244
I3493
sS'areas'
p4245
I3492
sS'names'
p4246
I812
sS'taxes'
p4247
I1040
sS'teams'
p4248
I3494
sS'street-corner'
p4249
I4210
sS'stuff'
p4250
I1042
sS'Both'
p4251
I795
sS'Jones'
p4252
I813
sS'insist'
p4253
I4114
sS'wholesale'
p4254
I4211
sS'taxed'
p4255
I1044
sS'fixed'
p4256
I1582
sS'view'
p4257
I4667
sS'Burnham'
p4258
I4668
sS'adverse'
p4259
I4714
sS'temporarily'
p4260
I1045
sS'accepted'
p4261
I4178
sS'acquired'
p4262
I4669
sS'national'
p4263
I3496
sS'8.63'
p4264
I3940
sS'manufacture'
p4265
I2028
sS'Traders'
p4266
I3497
sS'mentioned'
p4267
I2150
sS'RATE'
p4268
I3498
sS'computer'
p4269
I4057
sS'usefulness'
p4270
I2251
sS'enhanced'
p4271
I3499
sS'agricultural'
p4272
I3411
sS'operated'
p4273
I2253
sS'audits'
p4274
I3500
sS'Marunouchi'
p4275
I2254
sS'expects'
p4276
I3706
sS'White'
p4277
I4001
sS'puts'
p4278
I2569
sS'Wisconsin'
p4279
I2255
sS'attempting'
p4280
I3501
sS'apparently'
p4281
I3463
sS'2.25'
p4282
I2083
sS'Britain'
p4283
I4670
sS'brunt'
p4284
I3502
sS'forest-products'
p4285
I3503
sS'discounts'
p4286
I3504
sS'state'
p4287
I4080
sS':'
p4288
I838
sS'closed'
p4289
I4671
sS'routine'
p4290
I3506
sS'tens'
p4291
I2257
sS'nuclear'
p4292
I1052
sS'July'
p4293
I3508
sS'Republican'
p4294
I1054
sS'frustrated'
p4295
I4672
sS'sold'
p4296
I4397
sS'speed'
p4297
I1691
sS'bought'
p4298
I4673
sS'comparable'
p4299
I2260
sS'attention'
p4300
I4398
sS'Sen.'
p4301
I2262
sS'ability'
p4302
I4674
sS'opening'
p4303
I4675
sS'importance'
p4304
I2263
sS'single-A-2'
p4305
I1057
sS'court'
p4306
I1536
sS'Hartt'
p4307
I1059
sS'agencies'
p4308
I4676
sS'interfere'
p4309
I2264
sS'efficiency'
p4310
I2265
sS'job'
p4311
I4677
sS'takeover'
p4312
I4678
sS'acquisitions'
p4313
I635
sS'key'
p4314
I2266
sS'calling'
p4315
I1566
sS'less'
p4316
I1084
sS'approval'
p4317
I2268
sS'lawsuit'
p4318
I1661
sS'problem'
p4319
I1133
sS'declining'
p4320
I4679
sS'thumb'
p4321
I375
sS'association'
p4322
I3094
sS'hits'
p4323
I2270
sS'figured'
p4324
I1062
sS'defense'
p4325
I4384
sS'limits'
p4326
I2271
sS'always'
p4327
I651
sS'career'
p4328
I2272
sS'minutes'
p4329
I3612
sS'taking'
p4330
I3511
sS'equal'
p4331
I3512
sS'minds'
p4332
I2273
sS'pulp'
p4333
I2421
sS'liquidating'
p4334
I3514
sS'succeed'
p4335
I4400
sS'grain'
p4336
I4680
sS'heart'
p4337
I4551
sS'scuttle'
p4338
I3208
sS'Diego'
p4339
I3808
sS'adjusted'
p4340
I1065
sS'reacting'
p4341
I1547
sS'opposition'
p4342
I4401
sS'Her'
p4343
I1066
sS'124,875'
p4344
I3516
sS'ca'
p4345
I1067
sS'resulting'
p4346
I911
sS'wonder'
p4347
I2879
sS'CIA'
p4348
I1134
sS'packaging'
p4349
I4682
sS'Los'
p4350
I2276
sS'Finally'
p4351
I4683
sS'maximize'
p4352
I2277
sS'service-industry'
p4353
I1533
sS'clash'
p4354
I3873
sS'table'
p4355
I4684
sS'Keeping'
p4356
I4046
sS'Temple'
p4357
I3517
sS'Interest'
p4358
I4260
sS'600'
p4359
I1743
sS'8.1'
p4360
I1069
sS'pound'
p4361
I766
sS'Rewards'
p4362
I3518
sS'Muramatsu'
p4363
I3519
sS'remarkable'
p4364
I3924
sS'exposure'
p4365
I1153
sS'addition'
p4366
I2278
sS'commodities'
p4367
I4686
sS'trademark'
p4368
I4687
sS'ended'
p4369
I1543
sS'expressed'
p4370
I703
sS'arbitrator'
p4371
I4688
sS'permanent'
p4372
I4592
sS'agreements'
p4373
I4689
sS'Colorado'
p4374
I163
sS'indicators'
p4375
I3520
sS'proposal'
p4376
I3521
sS'2001'
p4377
I3337
sS'Toronto'
p4378
I4212
sS'legislature'
p4379
I735
sS'Exxon'
p4380
I4691
sS'controlled'
p4381
I2279
sS'Center'
p4382
I3523
sS'powerful'
p4383
I2183
sS'Among'
p4384
I3801
sS'am'
p4385
I559
sS'sufficient'
p4386
I4692
sS'prospects'
p4387
I736
sS'scrutiny'
p4388
I4694
sS'Paragould'
p4389
I3525
sS'Benson'
p4390
I4690
sS'ensuring'
p4391
I4696
sS'deep'
p4392
I2987
sS'suspension'
p4393
I378
sS'smoking'
p4394
I2283
sS'general'
p4395
I2988
sS'Navigation'
p4396
I4699
sS'present'
p4397
I4700
sS'And'
p4398
I2284
sS'Sept.'
p4399
I1472
sS'bipartisan'
p4400
I2979
sS'Force'
p4401
I4701
sS'survey'
p4402
I774
sS'dictation'
p4403
I2132
sS'need'
p4404
I2208
sS'appropriations'
p4405
I4703
sS'appearance'
p4406
I3528
sS'examine'
p4407
I2989
sS'value'
p4408
I3529
sS'General'
p4409
I3530
sS'Gen-Probe'
p4410
I775
sS'Cincinnati'
p4411
I1998
sS'PLC'
p4412
I4705
sS'credit-card'
p4413
I3803
sS'Taiwan'
p4414
I4706
sS'immoral'
p4415
I2138
sS'at'
p4416
I564
sS'supply'
p4417
I4707
sS'group'
p4418
I2770
sS'examiner'
p4419
I2288
sS'almost'
p4420
I3531
sS'intangible'
p4421
I89
sS'thus'
p4422
I4709
sS'profitability'
p4423
I3656
sS'clearly'
p4424
I1009
sS'helped'
p4425
I3533
sS'Square'
p4426
I4485
sS'examined'
p4427
I2289
sS'audiences'
p4428
I4710
sS'watched'
p4429
I565
sS'chambers'
p4430
I4386
sS'partner'
p4431
I3536
sS'You'
p4432
I2291
sS'Beach'
p4433
I3537
sS'Medical'
p4434
I1074
sS'parent'
p4435
I2885
sS'per-share'
p4436
I1591
sS'beats'
p4437
I2365
sS'perhaps'
p4438
I4711
sS'began'
p4439
I4301
sS'Hunter'
p4440
I3539
sS'Bear'
p4441
I2293
sS'proceeds'
p4442
I2294
sS'member'
p4443
I4713
sS'England'
p4444
I2320
sS'when'
p4445
I3911
sS'Computer'
p4446
I3805
sS'largest'
p4447
I4715
sS'units'
p4448
I4716
sS'party'
p4449
I2296
sS'negotiate'
p4450
I4446
sS'gets'
p4451
I4717
sS'start'
p4452
I4566
sS'difficult'
p4453
I4718
sS'Real'
p4454
I566
sS'material'
p4455
I4597
sS'JCP'
p4456
I3545
sS'denominations'
p4457
I3238
sS'Third'
p4458
I4719
sS'4.4'
p4459
I4218
sS'Jenrette'
p4460
I2219
sS'reporting'
p4461
I3546
sS'disagree'
p4462
I4319
sS'effect'
p4463
I2297
sS'exceeds'
p4464
I1352
sS'Airport'
p4465
I3547
sS'feet'
p4466
I4326
sS'II'
p4467
I3548
sS'frequently'
p4468
I2299
sS'strategic'
p4469
I3445
sS'Mitchell'
p4470
I2300
sS'collar'
p4471
I4333
sS'expand'
p4472
I1078
sS'keep'
p4473
I2180
sS'III'
p4474
I3695
sS'Houston'
p4475
I4721
sS'peoples'
p4476
I4440
sS'transaction'
p4477
I2303
sS'off'
p4478
I1080
sS'center'
p4479
I3550
sS'fully'
p4480
I1081
sS'Senate'
p4481
I3551
sS'whole'
p4482
I4722
sS'49'
p4483
I3614
sS'well'
p4484
I2304
sS'agency'
p4485
I3842
sS'States'
p4486
I4723
sS'patterns'
p4487
I1898
sS'testify'
p4488
I1858
sS'1'
p4489
I3990
sS'corporation'
p4490
I3616
sS'position'
p4491
I1903
sS'decliners'
p4492
I4725
sS'muscle'
p4493
I1906
sS'Shearson'
p4494
I4726
sS'MacMillan'
p4495
I4727
sS'usual'
p4496
I3553
sS'routinely'
p4497
I4728
sS'Using'
p4498
I4006
sS'heavily'
p4499
I4729
sS'increasingly'
p4500
I2305
sS'4.9'
p4501
I4222
sS'half'
p4502
I1552
sS'domestic'
p4503
I3556
sS'keeping'
p4504
I617
sS'Hyundai'
p4505
I2995
sS'cheer'
p4506
I4456
sS'interim'
p4507
I1925
sS'books'
p4508
I975
sS'Chairman'
p4509
I2308
sS'insisting'
p4510
I3420
sS'joining'
p4511
I3169
sS'tough'
p4512
I3557
sS'rest'
p4513
I511
sS'Nicholas'
p4514
I4730
sS'Tower'
p4515
I4731
sS'mysterious'
p4516
I1438
sS'Volume'
p4517
I1144
sS'rapid'
p4518
I4732
sS'InfoCorp'
p4519
I4733
sS'ads'
p4520
I3558
sS'Far'
p4521
I4734
sS'residential'
p4522
I1086
sS'Company'
p4523
I1087
sS'drive'
p4524
I448
sS'regulatory'
p4525
I982
sS'deposits'
p4526
I2309
sS'bench'
p4527
I3560
sS'valuation'
p4528
I1128
sS'reasons'
p4529
I4409
sS'add'
p4530
I3561
sS'Credit'
p4531
I4695
sS'adoption'
p4532
I4736
sS'maintaining'
p4533
I2310
sS'gene-splicing'
p4534
I2589
sS'Despite'
p4535
I2311
sS'executive'
p4536
I3555
sS'5'
p4537
I4224
sS'tax'
p4538
I4576
sS'warrant'
p4539
I4424
sS'By'
p4540
I2314
sS'ought'
p4541
I3562
sS'resolved'
p4542
I3563
sS'tests'
p4543
I3564
sS'sick'
p4544
I4798
sS'provisions'
p4545
I4738
sS'government'
p4546
I1091
sS'admit'
p4547
I2274
sS'protesters'
p4548
I4739
sS'Drug'
p4549
I4450
sS'increases'
p4550
I1092
sS'Food'
p4551
I4455
sS'five'
p4552
I1978
sS'know'
p4553
I4740
sS'burden'
p4554
I2316
sS'press'
p4555
I4741
sS'immediately'
p4556
I2317
sS'oppression'
p4557
I1148
sS'Panhandle'
p4558
I4225
sS'prominent'
p4559
I2318
sS'loss'
p4560
I2319
sS'forcing'
p4561
I1750
sS'necessary'
p4562
I4472
sS'like'
p4563
I3566
sS'success'
p4564
I3567
sS'Pharmaceuticals'
p4565
I3809
sS'onerous'
p4566
I4219
sS'trillion'
p4567
I4033
sS'purchasing'
p4568
I3847
sS'appalling'
p4569
I3336
sS'extremely'
p4570
I3164
sS'admitted'
p4571
I3568
sS'loses'
p4572
I4742
sS'taxpayers'
p4573
I4743
sS'traders'
p4574
I4582
sS'clarinetist'
p4575
I4481
sS'have'
p4576
I3462
sS'lose'
p4577
I2325
sS'agents'
p4578
I744
sS'works'
p4579
I3569
sS'soft'
p4580
I3570
sS'LONDON'
p4581
I3534
sS'accessible'
p4582
I3571
sS'parity'
p4583
I4745
sS'indications'
p4584
I1097
sS'Bouygues'
p4585
I4489
sS'arbitrage'
p4586
I2327
sS'school'
p4587
I3645
sS'classical'
p4588
I575
sS'tumble'
p4589
I4747
sS'Sun'
p4590
I4748
sS'Section'
p4591
I4749
sS'authority'
p4592
I3572
sS'Mason'
p4593
I2329
sS'certain'
p4594
I558
sS'growth'
p4595
I4750
sS'Zayadi'
p4596
I3574
sS'recommendation'
p4597
I3575
sS'Jaguar'
p4598
I4228
sS'little'
p4599
I2809
sS'registrations'
p4600
I2159
sS'leery'
p4601
I2331
sS'recognition'
p4602
I1099
sS'Givens'
p4603
I3576
sS'trust'
p4604
I3810
sS'lead'
p4605
I4752
sS'Singapore'
p4606
I4753
sS'hot-air'
p4607
I2678
sS'broad'
p4608
I4520
sS'avoid'
p4609
I2066
sS'Sihanouk'
p4610
I1315
sS'Ifint'
p4611
I2332
sS'salaries'
p4612
I1102
sS'G-7'
p4613
I2044
sS'Shere'
p4614
I4754
sS'profitable'
p4615
I4465
sS'sustain'
p4616
I1764
sS'passion'
p4617
I1105
sS'assuming'
p4618
I3577
sS'filers'
p4619
I2334
sS'leader'
p4620
I4755
sS'?'
p4621
I2335
sS'desperate'
p4622
I2252
sS'demonstration'
p4623
I1379
sS'Kato'
p4624
I970
sS'expansion'
p4625
I2336
sS'outlets'
p4626
I1149
sS'pressure'
p4627
I1106
sS'host'
p4628
I3579
sS'expire'
p4629
I3580
sS'Times'
p4630
I2727
sS'although'
p4631
I3581
sS'accompanied'
p4632
I1107
sS'1.8340'
p4633
I3403
sS'loans'
p4634
I2105
sS'handling'
p4635
I757
sS'C.'
p4636
I2568
sS'gained'
p4637
I1109
sS'plastic'
p4638
I4035
sS'about'
p4639
I3583
sS'Wakeman'
p4640
I2783
sS'rare'
p4641
I4759
sS'carried'
p4642
I4760
sS'unwelcome'
p4643
I1747
sS'obligation'
p4644
I1580
sS'beef'
p4645
I3812
sS'shipping'
p4646
I4763
sS'surge'
p4647
I4764
sS'proposals'
p4648
I2712
sS'carries'
p4649
I4765
sS'carrier'
p4650
I4766
sS'Americans'
p4651
I4767
sS'bidders'
p4652
I1050
sS'Japan'
p4653
I3587
sS'introduced'
p4654
I3588
sS'subcompact'
p4655
I446
sS'stakes'
p4656
I2341
sS'alliance'
p4657
I2146
sS'letters'
p4658
I1114
sS'coverage'
p4659
I1753
sS'owe'
p4660
I4769
sS'Tass'
p4661
I4598
sS'warrants'
p4662
I4770
sS'nerves'
p4663
I4619
sS'Two'
p4664
I3591
sS'billions'
p4665
I3592
sS'getting'
p4666
I4761
sS'included'
p4667
I4232
sS'Internal'
p4668
I2343
sS'police'
p4669
I546
sS'been'
p4670
I3815
sS'female'
p4671
I3593
sS'registration'
p4672
I4772
sS'lovely'
p4673
I2578
sS'quickly'
p4674
I3816
sS'initially'
p4675
I4396
sS'Nakamura'
p4676
I2344
sS'fired'
p4677
I1562
sS'1986'
p4678
I3595
sS'1987'
p4679
I2174
sS'1984'
p4680
I4110
sS'prudent'
p4681
I3001
sS'1982'
p4682
I3597
sS'1983'
p4683
I3598
sS'1980'
p4684
I3599
sS'1981'
p4685
I3600
sS'transfer'
p4686
I4775
sS'lagged'
p4687
I2349
sS'1988'
p4688
I3601
sS'awarded'
p4689
I3602
sS'lost'
p4690
I2322
sS'dropping'
p4691
I3226
sS'try'
p4692
I892
sS'frustration'
p4693
I1120
sS'biggest'
p4694
I3603
sS'California'
p4695
I1950
sS'breeding'
p4696
I4776
sS'9.7'
p4697
I1121
sS'pretax'
p4698
I1122
sS'jealously'
p4699
I2525
sS'function'
p4700
I1123
sS'Kleinwort'
p4701
I4359
sS'certificate'
p4702
I824
sS'triggered'
p4703
I4778
sS'aircraft'
p4704
I3207
sS'funds'
p4705
I4779
sS'brand'
p4706
I3606
sS'Edelson'
p4707
I2352
sS'Paperboard'
p4708
I3607
sS'Detroit'
p4709
I4780
sS'volume'
p4710
I4781
sS'expected'
p4711
I3819
sS'lowered'
p4712
I2222
sS'wealthier'
p4713
I3609
sS'Liberty'
p4714
I2164
sS'money-fund'
p4715
I3610
sS'larger'
p4716
I999
sS'squeeze'
p4717
I4782
sS'signal'
p4718
I789
sS'crop'
p4719
I681
sS'Conn.-based'
p4720
I571
sS'U.S.A.'
p4721
I2453
sS'Greenwich'
p4722
I918
sS'Gold'
p4723
I4785
sS'whether'
p4724
I4786
sS'meeting'
p4725
I4787
sS'wife'
p4726
I1130
sS'smooth'
p4727
I1131
sS'signed'
p4728
I2358
sS'record'
p4729
I4788
sS'below'
p4730
I4789
sS'89'
p4731
I4607
sS'limit'
p4732
I2359
sS'ruling'
p4733
I4790
sS'invest'
p4734
I4238
sS'200,000'
p4735
I4791
sS'distribution'
p4736
I2269
sS'piece'
p4737
I2360
sS'issue'
p4738
I1862
sS'Insurance'
p4739
I3613
sS'urging'
p4740
I4681
sS'Asked'
p4741
I1015
sS'marketplace'
p4742
I2362
sS'devise'
p4743
I2363
sS'reservations'
p4744
I2364
sS'measure'
p4745
I2167
sS'Chevy'
p4746
I3796
sS'Utility'
p4747
I3774
sS'slowing'
p4748
I1138
sS'Biosource'
p4749
I768
sS'guy'
p4750
I1485
sS'Gillette'
p4751
I4792
sS'Electronics'
p4752
I4793
sS'education'
p4753
I2366
sS'margins'
p4754
I2168
sS'Containers'
p4755
I1139
sS'Conn.'
p4756
I3821
sS'compared'
p4757
I1140
sS"'ll"
p4758
I4794
sS'contest'
p4759
I2367
sS'46'
p4760
I3615
sS'StatesWest'
p4761
I4724
sS'44'
p4762
I3617
sS'45'
p4763
I3618
sS'42'
p4764
I3619
sS'detail'
p4765
I3620
sS'40'
p4766
I3621
sS'lately'
p4767
I1143
sS'Fuji'
p4768
I4795
sS'commitments'
p4769
I4097
sS'book'
p4770
I4796
sS'Five'
p4771
I4797
sS'details'
p4772
I1145
sS'Besides'
p4773
I2370
sS'compete'
p4774
I1155
sS'out'
p4775
I3622
sS'scandal'
p4776
I3382
sS'reckless'
p4777
I1147
sS'7/16'
p4778
I4744
sS'Hees'
p4779
I2371
sS'February'
p4780
I2328
sS'kinds'
p4781
I4799
sS'Like'
p4782
I2372
sS'completes'
p4783
I3455
sS'shredded'
p4784
I4800
sS'class'
p4785
I4647
sS'ultimately'
p4786
I4015
sS'contends'
p4787
I4801
sS'March'
p4788
I4306
sS'April'
p4789
I3623
sS'chance'
p4790
I1150
sS'income-tax'
p4791
I4802
sS'UAW'
p4792
I4530
sS'Act'
p4793
I3624
sS'Weaver'
p4794
I4803
sS'gap'
p4795
I4804
sS'disclosure'
p4796
I2765
sS'4.25'
p4797
I4805
sS'South'
p4798
I1152
sS'Stewart'
p4799
I3625
sS'RTC'
p4800
I2787
sS'using'
p4801
I1701
sS'Ashurst'
p4802
I3626
sS'factors'
p4803
I4016
sS'earthquake'
p4804
I2728
sS'rule'
p4805
I1154
sS'original'
p4806
I3627
sS'portion'
p4807
I2378
sS'students'
p4808
I2998
sS'Cambodian'
p4809
I4806
sS'biotechnology'
p4810
I3628
sS'processors'
p4811
I1810
sS'defend'
p4812
I3429
sS'representative'
p4813
I754
ssS'label_dict'
p4814
g3
(g4
tp4815
Rp4816
S'rroot'
p4817
I0
sS'cc'
p4818
I1
sS'number'
p4819
I2
sS'ccomp'
p4820
I3
sS'possessive'
p4821
I4
sS'prt'
p4822
I5
sS'num'
p4823
I6
sS'nsubjpass'
p4824
I7
sS'csubj'
p4825
I8
sS'conj'
p4826
I9
sS'amod'
p4827
I39
sS'nn'
p4828
I11
sS'neg'
p4829
I12
sS'discourse'
p4830
I13
sS'mark'
p4831
I14
sS'auxpass'
p4832
I15
sS'infmod'
p4833
I16
sS'mwe'
p4834
I17
sS'advcl'
p4835
I18
sS'aux'
p4836
I19
sS'prep'
p4837
I20
sS'parataxis'
p4838
I21
sS'nsubj'
p4839
I22
sS'<null>'
p4840
I23
sS'rcmod'
p4841
I24
sS'advmod'
p4842
I25
sS'punct'
p4843
I26
sS'quantmod'
p4844
I27
sS'tmod'
p4845
I28
sS'acomp'
p4846
I29
sS'pcomp'
p4847
I30
sS'poss'
p4848
I31
sS'npadvmod'
p4849
I32
sS'xcomp'
p4850
I33
sS'cop'
p4851
I34
sS'partmod'
p4852
I35
sS'dep'
p4853
I36
sS'appos'
p4854
I37
sS'det'
p4855
I38
sS'dobj'
p4856
I10
sS'pobj'
p4857
I40
sS'iobj'
p4858
I41
sS'expl'
p4859
I42
sS'predet'
p4860
I43
sS'preconj'
p4861
I44
sS'root'
p4862
I45
ssS'pos_dict'
p4863
g3
(g4
tp4864
Rp4865
S'PRP$'
p4866
I0
sS'VBG'
p4867
I1
sS'FW'
p4868
I17
sS'<root>'
p4869
I3
sS'VBN'
p4870
I4
sS'POS'
p4871
I18
sS"''"
p4872
I6
sS'VBP'
p4873
I7
sS'WDT'
p4874
I8
sS'JJ'
p4875
I9
sS'WP'
p4876
I10
sS'VBZ'
p4877
I11
sS'DT'
p4878
I12
sg3026
I13
sS'RP'
p4879
I14
sg3264
I15
sS'NN'
p4880
I16
sS'VBD'
p4881
I2
sg2230
I5
sg767
I19
sS'TO'
p4882
I20
sS'PRP'
p4883
I21
sS'RB'
p4884
I22
sS'-LRB-'
p4885
I23
sg4288
I24
sS'NNS'
p4886
I25
sS'NNP'
p4887
I26
sS'``'
p4888
I27
sS'WRB'
p4889
I28
sS'CC'
p4890
I29
sS'<null>'
p4891
I30
sS'PDT'
p4892
I31
sS'RBS'
p4893
I32
sS'RBR'
p4894
I33
sS'CD'
p4895
I34
sS'EX'
p4896
I35
sS'IN'
p4897
I36
sS'WP$'
p4898
I37
sS'MD'
p4899
I38
sS'NNPS'
p4900
I39
sS'-RRB-'
p4901
I40
sS'JJS'
p4902
I41
sS'JJR'
p4903
I42
sS'VB'
p4904
I43
sS'UH'
p4905
I44
ssS'action_dict'
p4906
g3
(g4
tp4907
Rp4908
S'RIGHT-ARC:xcomp'
p4909
I80
sS'RIGHT-ARC:prep'
p4910
I67
sS'RIGHT-ARC:cc'
p4911
I48
sS'RIGHT-ARC:csubj'
p4912
I55
sS'LEFT-ARC:rcmod'
p4913
I25
sS'RIGHT-ARC:poss'
p4914
I78
sS'RIGHT-ARC:rcmod'
p4915
I71
sS'RIGHT-ARC:punct'
p4916
I73
sS'LEFT-ARC:nsubj'
p4917
I23
sS'LEFT-ARC:iobj'
p4918
I42
sS'RIGHT-ARC:prt'
p4919
I52
sS'LEFT-ARC:prep'
p4920
I21
sS'RIGHT-ARC:nsubjpass'
p4921
I54
sS'LEFT-ARC:mark'
p4922
I15
sS'LEFT-ARC:predet'
p4923
I44
sS'LEFT-ARC:advmod'
p4924
I26
sS'LEFT-ARC:npadvmod'
p4925
I33
sS'RIGHT-ARC:predet'
p4926
I90
sS'RIGHT-ARC:acomp'
p4927
I76
sS'LEFT-ARC:pcomp'
p4928
I31
sS'RIGHT-ARC:det'
p4929
I85
sS'RIGHT-ARC:dep'
p4930
I83
sS'LEFT-ARC:nsubjpass'
p4931
I8
sS'LEFT-ARC:ccomp'
p4932
I4
sS'RIGHT-ARC:expl'
p4933
I89
sS'RIGHT-ARC:advmod'
p4934
I72
sS'LEFT-ARC:tmod'
p4935
I29
sS'RIGHT-ARC:conj'
p4936
I56
sS'RIGHT-ARC:mwe'
p4937
I64
sS'RIGHT-ARC:amod'
p4938
I86
sS'LEFT-ARC:amod'
p4939
I40
sS'LEFT-ARC:mwe'
p4940
I18
sS'RIGHT-ARC:cop'
p4941
I81
sS'LEFT-ARC:cc'
p4942
I2
sS'LEFT-ARC:quantmod'
p4943
I28
sS'LEFT-ARC:prt'
p4944
I6
sS'LEFT-ARC:aux'
p4945
I20
sS'RIGHT-ARC:tmod'
p4946
I75
sS'RIGHT-ARC:quantmod'
p4947
I74
sS'LEFT-ARC:infmod'
p4948
I17
sS'LEFT-ARC:poss'
p4949
I32
sS'LEFT-ARC:conj'
p4950
I10
sS'RIGHT-ARC:infmod'
p4951
I63
sS'LEFT-ARC:pobj'
p4952
I41
sS'RIGHT-ARC:ccomp'
p4953
I50
sS'LEFT-ARC:advcl'
p4954
I19
sS'RIGHT-ARC:nn'
p4955
I58
sS'RIGHT-ARC:number'
p4956
I49
sS'RIGHT-ARC:possessive'
p4957
I51
sS'LEFT-ARC:csubj'
p4958
I9
sS'RIGHT-ARC:neg'
p4959
I59
sS'LEFT-ARC:appos'
p4960
I38
sS'RIGHT-ARC:preconj'
p4961
I91
sS'LEFT-ARC:auxpass'
p4962
I16
sS'RIGHT-ARC:iobj'
p4963
I88
sS'RIGHT-ARC:mark'
p4964
I61
sS'LEFT-ARC:expl'
p4965
I43
sS'LEFT-ARC:number'
p4966
I3
sS'LEFT-ARC:possessive'
p4967
I5
sS'RIGHT-ARC:pcomp'
p4968
I77
sS'LEFT-ARC:parataxis'
p4969
I22
sS'LEFT-ARC:acomp'
p4970
I30
sS'RIGHT-ARC:parataxis'
p4971
I68
sS'RIGHT-ARC:partmod'
p4972
I82
sS'RIGHT-ARC:discourse'
p4973
I60
sS'RIGHT-ARC:dobj'
p4974
I57
sS'LEFT-ARC:dep'
p4975
I37
sS'LEFT-ARC:det'
p4976
I39
sS'RIGHT-ARC:num'
p4977
I53
sS'LEFT-ARC:root'
p4978
I46
sS'LEFT-ARC:cop'
p4979
I35
sS'RIGHT-ARC:auxpass'
p4980
I62
sS'LEFT-ARC:xcomp'
p4981
I34
sS'LEFT-ARC:discourse'
p4982
I14
sS'LEFT-ARC:rroot'
p4983
I1
sS'SHIFT'
p4984
I0
sS'LEFT-ARC:<null>'
p4985
I24
sS'RIGHT-ARC:appos'
p4986
I84
sS'RIGHT-ARC:npadvmod'
p4987
I79
sS'RIGHT-ARC:pobj'
p4988
I87
sS'LEFT-ARC:partmod'
p4989
I36
sS'RIGHT-ARC:advcl'
p4990
I65
sS'RIGHT-ARC:nsubj'
p4991
I69
sS'LEFT-ARC:punct'
p4992
I27
sS'LEFT-ARC:nn'
p4993
I12
sS'RIGHT-ARC:root'
p4994
I92
sS'LEFT-ARC:num'
p4995
I7
sS'LEFT-ARC:dobj'
p4996
I11
sS'RIGHT-ARC:rroot'
p4997
I47
sS'RIGHT-ARC:aux'
p4998
I66
sS'LEFT-ARC:neg'
p4999
I13
sS'RIGHT-ARC:<null>'
p5000
I70
sS'LEFT-ARC:preconj'
p5001
I45
ssb(inet_properties
NetProperties
p5002
(dp5003
S'label_embed_dim'
p5004
I32
sS'hidden_dim2'
p5005
I400
sS'hidden_dim1'
p5006
I400
sS'pos_embed_dim'
p5007
I32
sS'word_embed_dim'
p5008
I64
sS'minibatch_size'
p5009
I1000
sbtp5010
.